(dp1
(S'Close'
p2
S'Too Far'
p3
S'OK'
p4
S'Bottom'
p5
tp6
(dp7
I0
cnumpy.core.multiarray
scalar
p8
(cnumpy
dtype
p9
(S'f8'
I0
I1
tRp10
(I3
S'<'
NNNI-1
I-1
I0
tbS'\xf9\xd8\xf4\x9ay\xf9\x10\xc0'
tRp11
sI20
g8
(g10
S'\x9a\xeeS\xd0\x1a\xcc\x10\xc0'
tRp12
sI-45
g8
(g10
S'\x84\x92v!\xed\xd9\x10\xc0'
tRp13
sI-20
g8
(g10
S'\x9ax7?\x1b\xca\x10\xc0'
tRp14
sI45
g8
(g10
S'\xdd\xf7V1{\xe5\x10\xc0'
tRp15
ss(g2
g4
S'Far'
p16
S'Close Front'
p17
tp18
(dp19
I0
I0
sI20
I0
sI-45
I0
sI-20
I0
sI45
F-0.359375
ss(g4
g2
g3
g17
tp20
(dp21
I0
I0
sI20
I0
sI-45
I0
sI-20
I0
sI45
I0
ss(g16
g16
g3
g17
tp22
(dp23
I0
I0
sI20
I0
sI-45
I0
sI-20
I0
sI45
I0
ss(g16
g3
g4
S'Front'
p24
tp25
(dp26
I0
g8
(g10
S'\xea\x83FQR>\x07\xc0'
tRp27
sI20
g8
(g10
S'3m\xa0W\xea\xe4\x08\xc0'
tRp28
sI-45
g8
(g10
S'\x9f\x9fvj\xc4\x97\x08\xc0'
tRp29
sI-20
g8
(g10
S'\x9ap\xdd\xa4\x14\xaf\x07\xc0'
tRp30
sI45
g8
(g10
S'\xf5\x80\x02\x80\x17\xfe\x07\xc0'
tRp31
ss(g4
g4
g2
S'Close Left'
p32
tp33
(dp34
I0
I0
sI20
I0
sI-45
I0
sI-20
I0
sI45
I0
ss(g4
g16
S'Too Close'
p35
g17
tp36
(dp37
I0
I0
sI20
I0
sI-45
I0
sI-20
I0
sI45
I0
ss(g2
g2
g2
S'Left'
p38
tp39
(dp40
I0
g8
(g10
S'5\x9eC\xf3\xbc\xa7\x13\xc0'
tRp41
sI20
g8
(g10
S'2\xbbg\x9ah,\x13\xc0'
tRp42
sI-45
g8
(g10
S'\xf8qP\xb9K\x8e\x13\xc0'
tRp43
sI-20
g8
(g10
S',W:\xf2E\xe7\x11\xc0'
tRp44
sI45
g8
(g10
S'\xb8x\xdbN\xd0]\x13\xc0'
tRp45
ss(g4
g2
g2
S'Close Right'
p46
tp47
(dp48
I0
I0
sI20
I0
sI-45
I0
sI-20
I0
sI45
I0
ss(g4
g35
g4
g5
tp49
(dp50
I0
I0
sI20
I0
sI-45
I0
sI-20
I0
sI45
I0
ss(g2
g3
g16
g17
tp51
(dp52
I0
I0
sI20
I0
sI-45
I0
sI-20
I0
sI45
g8
(g10
S'4\x91$F\xeaE\xff?'
tRp53
ss(g2
g4
g16
g46
tp54
(dp55
I0
g8
(g10
S'\xa8\xf2\xff\x93\xf1\xb7\x16@'
tRp56
sI20
F-1.7721399356063967
sI-45
F0.98750000000000004
sI-20
I0
sI45
F0.12870854448348423
ss(g2
g3
g16
g24
tp57
(dp58
I0
g8
(g10
S'W`ljW\xe8\x11\xc0'
tRp59
sI20
g8
(g10
S"\x9b\x18\x99\x0bE'\x11\xc0"
tRp60
sI-45
g8
(g10
S'/\x1f\xcb\xb7\x82\xea\x11\xc0'
tRp61
sI-20
g8
(g10
S'\x04<\xd7\xbe\xc2\xe8\x11\xc0'
tRp62
sI45
g8
(g10
S'\x8f^\xbf\xb3#\x87\x11\xc0'
tRp63
ss(g4
g3
g35
g46
tp64
(dp65
I0
I0
sI20
I0
sI-45
I0
sI-20
I0
sI45
I0
ss(g4
g16
g4
g32
tp66
(dp67
I0
I0
sI20
I0
sI-45
I0
sI-20
I0
sI45
I0
ss(g4
g2
g35
g38
tp68
(dp69
I0
I0
sI20
I0
sI-45
I0
sI-20
I0
sI45
I0
ss(g16
g16
g16
S'Right'
p70
tp71
(dp72
I0
g8
(g10
S'\x16R\xf8c\xc1(\x01\xc0'
tRp73
sI20
g8
(g10
S'I.\t|!\xa7\x03\xc0'
tRp74
sI-45
g8
(g10
S'gd\xc8+\x82V\x03\xc0'
tRp75
sI-20
g8
(g10
S'\xa2\x03I\xfa\x0c\xe4\x03\xc0'
tRp76
sI45
g8
(g10
S'\tx\xc4\xef\x03\xfd\x02\xc0'
tRp77
ss(g4
g2
g4
g24
tp78
(dp79
I0
I0
sI20
I0
sI-45
I0
sI-20
I0
sI45
I0
ss(g4
g35
g2
g24
tp80
(dp81
I0
I0
sI20
I0
sI-45
I0
sI-20
I0
sI45
I0
ss(g2
g16
g35
g38
tp82
(dp83
I0
g8
(g10
S'\xffJ\xc3\x1e\xe7\xb0\x11\xc0'
tRp84
sI20
g8
(g10
S'\x02\xe4Y\x84\xa8\x9b\x11\xc0'
tRp85
sI-45
g8
(g10
S'\x93\x1c]\xf8\x85+\x12\xc0'
tRp86
sI-20
g8
(g10
S'\xd0V8Y\xb9\xc3\x11\xc0'
tRp87
sI45
g8
(g10
S'"\xfe\xc7c\xb2\xcb\x11\xc0'
tRp88
ss(g4
g2
g2
S'Close Bottom'
p89
tp90
(dp91
I0
I0
sI20
I0
sI-45
I0
sI-20
I0
sI45
I0
ss(g4
g2
g2
g24
tp92
(dp93
I0
I0
sI20
I0
sI-45
I0
sI-20
I0
sI45
I0
ss(g2
g16
g3
g70
tp94
(dp95
I0
g8
(g10
S'e\xff\x97\xa4\xd0\xae\x10\xc0'
tRp96
sI20
g8
(g10
S'\xd0\xdc\xa4\xa1\x91\x83\x10\xc0'
tRp97
sI-45
g8
(g10
S'\xffM\xfd[\xb2\x83\x10\xc0'
tRp98
sI-20
g8
(g10
S'\xfd\xab\xcd\x91o\xad\x10\xc0'
tRp99
sI45
g8
(g10
S'\xda\x93Dw/\xb1\x10\xc0'
tRp100
ss(g16
g3
g4
S'Tagged'
p101
tp102
(dp103
I0
I0
sI20
I0
sI-45
I0
sI-20
I0
sI45
I0
ss(g2
g16
g2
g89
tp104
(dp105
I0
F-0.20000000000000001
sI20
F-0.20000000000000001
sI-45
I0
sI-20
I0
sI45
F-0.20000000000000001
ss(g2
g2
g35
g70
tp106
(dp107
I0
g8
(g10
S'\x9d$\xea\xe6\xaah\r\xc0'
tRp108
sI20
g8
(g10
S'K\x8e\xa9\x18\xbe\xba\t\xc0'
tRp109
sI-45
g8
(g10
S'\xf9\xdb\xc8\xbc\x83r\x0c\xc0'
tRp110
sI-20
g8
(g10
S'\x930\xeb\xa2\xecR\x0b\xc0'
tRp111
sI45
g8
(g10
S"\xcf\xe5\xcaJN'\x0e\xc0"
tRp112
ss(g16
g35
g2
g46
tp113
(dp114
I0
I0
sI20
I0
sI-45
I0
sI-20
I0
sI45
I0
ss(g16
g16
g35
g17
tp115
(dp116
I0
I0
sI20
I0
sI-45
I0
sI-20
I0
sI45
I0
ss(g4
g4
g16
g101
tp117
(dp118
I0
I0
sI20
I0
sI-45
I0
sI-20
I0
sI45
I0
ss(g16
g35
g2
g24
tp119
(dp120
I0
I0
sI20
I0
sI-45
I0
sI-20
I0
sI45
I0
ss(g16
g4
g3
g89
tp121
(dp122
I0
I0
sI20
I0
sI-45
I0
sI-20
I0
sI45
I0
ss(g4
g2
g16
g70
tp123
(dp124
I0
I0
sI20
I0
sI-45
I0
sI-20
I0
sI45
I0
ss(g2
g35
g3
g70
tp125
(dp126
I0
g8
(g10
S'4\xcc\x90\xd31\xd7\x11\xc0'
tRp127
sI20
g8
(g10
S'\x0f\xce\xb9p\xeb-\x12\xc0'
tRp128
sI-45
g8
(g10
S'\xeb\xe6\xe5\x85\xc6\xf6\x12\xc0'
tRp129
sI-20
g8
(g10
S'V\xb5,\xf403\x12\xc0'
tRp130
sI45
g8
(g10
S'\x9fz\x0c\x1377\x12\xc0'
tRp131
ss(g16
g4
g3
g101
tp132
(dp133
I0
I0
sI20
I0
sI-45
I0
sI-20
I0
sI45
I0
ss(g2
g3
g2
g89
tp134
(dp135
I0
g8
(g10
S'\xde\x1fD\xc1?\xdd\xfd\xbf'
tRp136
sI20
g8
(g10
S'\xbb\x8e:b\xc6F\t\xc0'
tRp137
sI-45
g8
(g10
S'L\xef\x08\x061\xa0\x03@'
tRp138
sI-20
g8
(g10
S'S\xf4\x04C\x9e\x88\xff\xbf'
tRp139
sI45
g8
(g10
S'\x17\xb1\x18\xb8c=\xfb\xbf'
tRp140
ss(g16
g3
g35
g89
tp141
(dp142
I0
I0
sI20
I0
sI-45
I0
sI-20
I0
sI45
I0
ss(g4
g3
g4
g32
tp143
(dp144
I0
I0
sI20
I0
sI-45
I0
sI-20
I0
sI45
I0
ss(g16
g16
g35
g38
tp145
(dp146
I0
I0
sI20
F-0.3378587765945249
sI-45
I0
sI-20
F-0.20000000000000001
sI45
I0
ss(g4
g3
g4
g46
tp147
(dp148
I0
I0
sI20
I0
sI-45
I0
sI-20
I0
sI45
I0
ss(g16
g4
g2
g5
tp149
(dp150
I0
I0
sI20
I0
sI-45
I0
sI-20
I0
sI45
I0
ss(g16
g16
g2
g89
tp151
(dp152
I0
I0
sI20
I0
sI-45
I0
sI-20
I0
sI45
I0
ss(g16
g4
g2
g89
tp153
(dp154
I0
I0
sI20
I0
sI-45
I0
sI-20
I0
sI45
I0
ss(g16
g35
g35
g38
tp155
(dp156
I0
I0
sI20
I0
sI-45
I0
sI-20
I0
sI45
I0
ss(g2
g16
g35
g17
tp157
(dp158
I0
I0
sI20
I0
sI-45
I0
sI-20
I0
sI45
I0
ss(g2
g3
g35
g46
tp159
(dp160
I0
I0
sI20
I0
sI-45
I0
sI-20
F-0.20000000000000001
sI45
I0
ss(g2
g35
g35
g17
tp161
(dp162
I0
I0
sI20
I0
sI-45
I0
sI-20
I0
sI45
I0
ss(g16
g4
g3
g46
tp163
(dp164
I0
I0
sI20
I0
sI-45
I0
sI-20
I0
sI45
I0
ss(g16
g35
g4
g17
tp165
(dp166
I0
I0
sI20
I0
sI-45
I0
sI-20
I0
sI45
I0
ss(g2
g2
g16
g70
tp167
(dp168
I0
g8
(g10
S'\xb43J\xee\x87&\t\xc0'
tRp169
sI20
g8
(g10
S'\x03(\x8e\x9b/\x92\x07\xc0'
tRp170
sI-45
g8
(g10
S'FH\x91\xda\xae\xd8\x06\xc0'
tRp171
sI-20
g8
(g10
S'\x9d\xac\x98;\xa8\xcc\x03\xc0'
tRp172
sI45
g8
(g10
S'\xda\xbet<\xad\x8d\x08\xc0'
tRp173
ss(g2
g35
g2
g89
tp174
(dp175
I0
g8
(g10
S'\xc7o\xbcuh\xe3\xeb\xbf'
tRp176
sI20
g8
(g10
S'4\x03\x9e\x9e6c\xed\xbf'
tRp177
sI-45
g8
(g10
S'?r\xb1\x88A\x17\xc5\xbf'
tRp178
sI-20
g8
(g10
S'"\xc6\xbd\xb6\xda\x11\xf1\xbf'
tRp179
sI45
F-0.8141035291136639
ss(g16
g4
g4
g70
tp180
(dp181
I0
g8
(g10
S'uV\xf9\xc2f\x8c\xfd\xbf'
tRp182
sI20
g8
(g10
S'D\x81X\x83\x1b\x16\xfb\xbf'
tRp183
sI-45
g8
(g10
S'\xd0\xc8\xe9Et\x08\x00\xc0'
tRp184
sI-20
g8
(g10
S'\xf7\xa1tt\x83N\xfb\xbf'
tRp185
sI45
g8
(g10
S'\xb1\x81\x7fS\x00k\xfb\xbf'
tRp186
ss(g2
g16
g2
g101
tp187
(dp188
I0
g8
(g10
S'm\xf0e@\x15a\x1d@'
tRp189
sI20
g8
(g10
S'\x98n\xc7\x8c\xb0\x94\x06@'
tRp190
sI-45
g8
(g10
S"'\x9a\xda\x16w\xb6\x13@"
tRp191
sI-20
g8
(g10
S'\xca\xb5\x98\xac\xc1\xdf%@'
tRp192
sI45
g8
(g10
S'\x07Z\xa1\x92n\xd0\x16@'
tRp193
ss(g2
g4
g4
g24
tp194
(dp195
I0
g8
(g10
S'\xac0\xcc\xd8\xda\x03\x11\xc0'
tRp196
sI20
g8
(g10
S'\x13\xbc\x8d\x0e\xbf\r\x11\xc0'
tRp197
sI-45
g8
(g10
S'\xa3F\x19\xedM\xe8\x10\xc0'
tRp198
sI-20
g8
(g10
S'B\x9b\n\xa2\xb0\x87\x10\xc0'
tRp199
sI45
g8
(g10
S'\x14\x11\x85\xcc8$\x11\xc0'
tRp200
ss(g2
g3
g16
g38
tp201
(dp202
I0
g8
(g10
S'[\xd6\xbad%\x01\x12\xc0'
tRp203
sI20
g8
(g10
S'\xa9ib\x16O\xf2\x11\xc0'
tRp204
sI-45
g8
(g10
S'\xb8S\xf0&d\xac\x11\xc0'
tRp205
sI-20
g8
(g10
S'\x88zER\x93\xf7\x11\xc0'
tRp206
sI45
g8
(g10
S'\x84\xf9\x89\\\r\xf8\x11\xc0'
tRp207
ss(g16
g16
g2
g46
tp208
(dp209
I0
F-0.36000000000000004
sI20
F-0.54586065931163574
sI-45
F-0.34464000000000006
sI-20
g8
(g10
S'\x9e\xda\xa9\x0c\xad5\xc9\xbf'
tRp210
sI45
F-0.54260424941671048
ss(g16
g3
g4
g89
tp211
(dp212
I0
I0
sI20
F-0.20000000000000001
sI-45
I0
sI-20
I0
sI45
I0
ss(g2
g4
g3
g38
tp213
(dp214
I0
g8
(g10
S'\x18G\xe0\x1c\xfc/\x12\xc0'
tRp215
sI20
g8
(g10
S'\xc1\xe4\x97\x91\xb4\xcb\x11\xc0'
tRp216
sI-45
g8
(g10
S'\xf3\xec\x05\x87\xed6\x10\xc0'
tRp217
sI-20
g8
(g10
S'\xaa\x01\xac\xd5\x1e\xbf\x11\xc0'
tRp218
sI45
g8
(g10
S'&\x87\x80\x1fu\x00\x12\xc0'
tRp219
ss(g16
g35
g16
g101
tp220
(dp221
I0
F0
sI20
F-0.20000000000000001
sI-45
F0
sI-20
F0
sI45
F1
ss(g2
g4
g4
g17
tp222
(dp223
I0
F-0.20000000000000001
sI20
F0.066142157456530459
sI-45
I0
sI-20
I0
sI45
F-1.3848651225081949
ss(g4
g4
g3
g24
tp224
(dp225
I0
I0
sI20
I0
sI-45
I0
sI-20
I0
sI45
I0
ss(g2
g35
g2
g5
tp226
(dp227
I0
g8
(g10
S'\xd2\xfc\xcb\xb2[u\x12\xc0'
tRp228
sI20
g8
(g10
S'\xb4\xe16\xee\xa6\xb9\x10\xc0'
tRp229
sI-45
g8
(g10
S'\xed\x84\x81c\xf8\xaa\x12\xc0'
tRp230
sI-20
g8
(g10
S'pQ\xb8,\x8a\xfe\x12\xc0'
tRp231
sI45
g8
(g10
S'\x16\x1a\x1f\x9b\xb4\xab\x12\xc0'
tRp232
ss(g4
g2
g4
g89
tp233
(dp234
I0
I0
sI20
I0
sI-45
I0
sI-20
I0
sI45
I0
ss(g16
g35
g2
g32
tp235
(dp236
I0
I0
sI20
I0
sI-45
I0
sI-20
I0
sI45
I0
ss(g2
g35
g35
g5
tp237
(dp238
I0
g8
(g10
S'!x\xe0p\xcb\x9d\x10\xc0'
tRp239
sI20
g8
(g10
S's\xdd3w\xe3=\x10\xc0'
tRp240
sI-45
g8
(g10
S'XA\xac\xbf\x96\x85\x10\xc0'
tRp241
sI-20
g8
(g10
S'\x03\xfa2\x85\xfb\x9a\x10\xc0'
tRp242
sI45
g8
(g10
S'\x81\xe0\x06j\xf2\xa8\x10\xc0'
tRp243
ss(g16
g2
g2
g5
tp244
(dp245
I0
I0
sI20
I0
sI-45
I0
sI-20
I0
sI45
I0
ss(g16
g16
g2
g70
tp246
(dp247
I0
g8
(g10
S'N\xd6\x92_B[\xff\xbf'
tRp248
sI20
g8
(g10
S'\xf0\x19*\x13\x80\x0c\xfd\xbf'
tRp249
sI-45
g8
(g10
S'\x0e\xd7/V\xaa(\x03\xc0'
tRp250
sI-20
g8
(g10
S'\x89\xd6\xd0vj\xe1\xfc\xbf'
tRp251
sI45
g8
(g10
S'V8\xf9~\x97:\xfa\xbf'
tRp252
ss(g4
g35
g3
g70
tp253
(dp254
I0
I0
sI20
I0
sI-45
I0
sI-20
I0
sI45
I0
ss(g4
g4
g35
g17
tp255
(dp256
I0
I0
sI20
I0
sI-45
I0
sI-20
I0
sI45
I0
ss(g16
g35
g4
g5
tp257
(dp258
I0
I0
sI20
I0
sI-45
I0
sI-20
I0
sI45
I0
ss(g16
g2
g2
g38
tp259
(dp260
I0
I0
sI20
I0
sI-45
I0
sI-20
I0
sI45
I0
ss(g4
g2
g35
g70
tp261
(dp262
I0
I0
sI20
I0
sI-45
I0
sI-20
I0
sI45
I0
ss(g16
g35
g16
g32
tp263
(dp264
I0
I0
sI20
I0
sI-45
I0
sI-20
I0
sI45
I0
ss(g4
g3
g3
g89
tp265
(dp266
I0
I0
sI20
I0
sI-45
I0
sI-20
I0
sI45
I0
ss(g16
g3
g4
g46
tp267
(dp268
I0
I0
sI20
I0
sI-45
g8
(g10
S'[\x17\xa26^h\xff?'
tRp269
sI-20
F0
sI45
F-0.20000000000000001
ss(g2
g2
g16
g46
tp270
(dp271
I0
I0
sI20
I0
sI-45
I0
sI-20
I0
sI45
I0
ss(g4
g35
g35
g32
tp272
(dp273
I0
I0
sI20
I0
sI-45
I0
sI-20
I0
sI45
I0
ss(g2
g4
g2
g46
tp274
(dp275
I0
I0
sI20
I0
sI-45
F-0.25
sI-20
I0
sI45
I0
ss(g4
g2
g4
g101
tp276
(dp277
I0
I0
sI20
I0
sI-45
I0
sI-20
I0
sI45
I0
ss(g4
g35
g16
g101
tp278
(dp279
I0
I0
sI20
I0
sI-45
I0
sI-20
I0
sI45
I0
ss(g16
g4
g35
g70
tp280
(dp281
I0
I0
sI20
I0
sI-45
I0
sI-20
I0
sI45
I0
ss(g2
g35
g35
g38
tp282
(dp283
I0
g8
(g10
S'\x16\xa4M\xd2R\x18\x10\xc0'
tRp284
sI20
g8
(g10
S'L`\xe2\x99\xe7\x15\x13\xc0'
tRp285
sI-45
g8
(g10
S'\xd8pt\xb0a0\x12\xc0'
tRp286
sI-20
g8
(g10
S'\x02j\xe4\x8f\xcf<\x13\xc0'
tRp287
sI45
g8
(g10
S'7\x19\\\x9awk\x13\xc0'
tRp288
ss(g2
g35
g16
g17
tp289
(dp290
I0
I0
sI20
I0
sI-45
I0
sI-20
I0
sI45
I0
ss(g16
g2
g2
g17
tp291
(dp292
I0
I0
sI20
I0
sI-45
I0
sI-20
I0
sI45
I0
ss(g16
g16
g4
g32
tp293
(dp294
I0
I0
sI20
I0
sI-45
I0
sI-20
I0
sI45
I0
ss(g4
g35
g4
g38
tp295
(dp296
I0
I0
sI20
I0
sI-45
I0
sI-20
I0
sI45
I0
ss(g4
g4
g2
g46
tp297
(dp298
I0
I0
sI20
I0
sI-45
I0
sI-20
I0
sI45
I0
ss(g4
g16
g16
g32
tp299
(dp300
I0
I0
sI20
I0
sI-45
I0
sI-20
I0
sI45
I0
ss(g4
g3
g35
g17
tp301
(dp302
I0
I0
sI20
I0
sI-45
I0
sI-20
I0
sI45
I0
ss(g16
g4
g4
g46
tp303
(dp304
I0
F-0.20000000000000001
sI20
I0
sI-45
I0
sI-20
I0
sI45
F0.5
ss(g4
g16
g35
g46
tp305
(dp306
I0
I0
sI20
I0
sI-45
I0
sI-20
I0
sI45
I0
ss(g2
g3
g4
g101
tp307
(dp308
I0
g8
(g10
S'\xc8\x9c\xf2\xb1y)\x15@'
tRp309
sI20
g8
(g10
S'\xb5\xb3\x81\xbf\xb3U\x15@'
tRp310
sI-45
F2.7255933470856455
sI-20
F1.351768789389771
sI45
g8
(g10
S'n1\xbb3\xedm\x0f@'
tRp311
ss(g2
g3
g2
g24
tp312
(dp313
I0
g8
(g10
S'\xa4\x10R\xa7\xae\x94\x12\xc0'
tRp314
sI20
g8
(g10
S'\xe79\x19K\xcb\x17\x13\xc0'
tRp315
sI-45
g8
(g10
S'\xf8v\xf7\xd5\x86\xcd\x12\xc0'
tRp316
sI-20
g8
(g10
S'\x1d\x96\xdd\xa8-\xdf\x12\xc0'
tRp317
sI45
g8
(g10
S'\xc8\x91\xf5\xcfL\x07\x11\xc0'
tRp318
ss(g2
g35
g2
g24
tp319
(dp320
I0
g8
(g10
S't{\xa3%+\x8e\x11\xc0'
tRp321
sI20
g8
(g10
S'\xfa\x07@1\xdbz\x12\xc0'
tRp322
sI-45
g8
(g10
S'\xfa\xd4\x84\rX\x14\x10\xc0'
tRp323
sI-20
g8
(g10
S'\xdf\xbe/\xb8T\xf0\x11\xc0'
tRp324
sI45
g8
(g10
S'i\x95U{Wy\x11\xc0'
tRp325
ss(g16
g16
g4
g101
tp326
(dp327
I0
I0
sI20
I0
sI-45
I0
sI-20
I0
sI45
I0
ss(g16
g2
g35
g38
tp328
(dp329
I0
I0
sI20
I0
sI-45
I0
sI-20
I0
sI45
I0
ss(g4
g2
g4
g70
tp330
(dp331
I0
I0
sI20
I0
sI-45
I0
sI-20
I0
sI45
I0
ss(g4
g4
g3
g70
tp332
(dp333
I0
I0
sI20
I0
sI-45
I0
sI-20
I0
sI45
I0
ss(g4
g4
g2
g89
tp334
(dp335
I0
I0
sI20
I0
sI-45
I0
sI-20
I0
sI45
I0
ss(g2
g16
g16
g32
tp336
(dp337
I0
I0
sI20
I0
sI-45
I0
sI-20
I0
sI45
I0
ss(g16
g2
g35
g5
tp338
(dp339
I0
I0
sI20
I0
sI-45
I0
sI-20
I0
sI45
I0
ss(g16
g4
g4
g5
tp340
(dp341
I0
g8
(g10
S'\xef\x1fK\xd4\xb3s\x00\xc0'
tRp342
sI20
g8
(g10
S'\xab\xbf\xf8m;\xac\x02\xc0'
tRp343
sI-45
g8
(g10
S'\xae\xf07\xd1vy\x01\xc0'
tRp344
sI-20
g8
(g10
S'Th\x8c6\nd\xfd\xbf'
tRp345
sI45
g8
(g10
S'\xc2|yu\xfbg\x02\xc0'
tRp346
ss(g16
g35
g35
g32
tp347
(dp348
I0
I0
sI20
I0
sI-45
I0
sI-20
I0
sI45
I0
ss(g16
g4
g4
g89
tp349
(dp350
I0
I0
sI20
I0
sI-45
I0
sI-20
I0
sI45
F-0.0625
ss(g16
g2
g4
g89
tp351
(dp352
I0
I0
sI20
I0
sI-45
I0
sI-20
F-0.25
sI45
I0
ss(g16
g4
g4
g38
tp353
(dp354
I0
g8
(g10
S'\xa6\xb3m\xc1\xed*\xf5\xbf'
tRp355
sI20
g8
(g10
S':2\x19r\x82\x89\xf6\xbf'
tRp356
sI-45
g8
(g10
S'QM\xeeK\xd6\xc9\xf6\xbf'
tRp357
sI-20
g8
(g10
S'\xd2`\xfbBN\xa9\xf4\xbf'
tRp358
sI45
g8
(g10
S'\xe7\xd1@\xc6\x1a\xe7\xf7\xbf'
tRp359
ss(g2
g35
g3
g46
tp360
(dp361
I0
I0
sI20
I0
sI-45
g8
(g10
S'\x82J"i\xdeG\xd2\xbf'
tRp362
sI-20
I0
sI45
g8
(g10
S'\xf7/\x03\xf0\xa7\x0e\xc0?'
tRp363
ss(g4
g35
g16
g32
tp364
(dp365
I0
I0
sI20
I0
sI-45
I0
sI-20
I0
sI45
I0
ss(g16
g3
g16
g89
tp366
(dp367
I0
I0
sI20
I0
sI-45
I0
sI-20
I0
sI45
I0
ss(g16
g16
g16
g46
tp368
(dp369
I0
I0
sI20
I0
sI-45
I0
sI-20
I0
sI45
I0
ss(g16
g16
g35
g24
tp370
(dp371
I0
I0
sI20
I0
sI-45
I0
sI-20
I0
sI45
I0
ss(g4
g2
g3
g101
tp372
(dp373
I0
I0
sI20
I0
sI-45
I0
sI-20
I0
sI45
I0
ss(g4
g3
g2
g24
tp374
(dp375
I0
I0
sI20
I0
sI-45
I0
sI-20
I0
sI45
I0
ss(g2
g2
g3
g17
tp376
(dp377
I0
g8
(g10
S'~e*n9\x12\xf2\xbf'
tRp378
sI20
g8
(g10
S'\xcbA@\x19\xa7T\xf2\xbf'
tRp379
sI-45
g8
(g10
S'. ci>G\xfb?'
tRp380
sI-20
g8
(g10
S'ha(\xbe\xd9X\xf6?'
tRp381
sI45
g8
(g10
S'\xc6\x88L\t:\x14\xf7\xbf'
tRp382
ss(g2
g4
g2
g70
tp383
(dp384
I0
g8
(g10
S'F\x97\xe5\x10\xd6I\x05\xc0'
tRp385
sI20
g8
(g10
S'B\x03\x17\xbfO|\x03\xc0'
tRp386
sI-45
g8
(g10
S'\x81\xda\xbel\xb0C\x05\xc0'
tRp387
sI-20
g8
(g10
S'\xdf\xf2\x18\xef\xa4\xda\x04\xc0'
tRp388
sI45
g8
(g10
S'\xf8\xa1H\xf9\xfbc\x05\xc0'
tRp389
ss(g4
g4
g16
g17
tp390
(dp391
I0
I0
sI20
I0
sI-45
I0
sI-20
I0
sI45
I0
ss(g2
g4
g2
g5
tp392
(dp393
I0
g8
(g10
S'\xf9)\x9c\xbc\xf1\x93\x11\xc0'
tRp394
sI20
g8
(g10
S'\x94\xdd-\x03\xbe\x9f\x11\xc0'
tRp395
sI-45
g8
(g10
S'S\\\x1b\xbb\xeaR\x11\xc0'
tRp396
sI-20
g8
(g10
S'\x90\xf2\xab\xea\xa7U\x11\xc0'
tRp397
sI45
g8
(g10
S'\xd8>\xf3\x91\x92P\x11\xc0'
tRp398
ss(g4
g35
g2
g32
tp399
(dp400
I0
I0
sI20
I0
sI-45
I0
sI-20
I0
sI45
I0
ss(g4
g35
g2
g5
tp401
(dp402
I0
I0
sI20
I0
sI-45
I0
sI-20
I0
sI45
I0
ss(g2
g2
g3
g70
tp403
(dp404
I0
g8
(g10
S'r\xf9s\x93\xd8o\x12\xc0'
tRp405
sI20
g8
(g10
S'\xec\x02)d}\x8b\x10\xc0'
tRp406
sI-45
g8
(g10
S'\xd4\xcf/\x07\xb2\xec\x11\xc0'
tRp407
sI-20
g8
(g10
S'7o\xeeq\x0e|\x12\xc0'
tRp408
sI45
g8
(g10
S'\xe3\x94\x11\xa4Gp\x13\xc0'
tRp409
ss(g4
g3
g2
g70
tp410
(dp411
I0
I0
sI20
I0
sI-45
I0
sI-20
I0
sI45
I0
ss(g16
g2
g4
g46
tp412
(dp413
I0
I0
sI20
I0
sI-45
I0
sI-20
I0
sI45
I0
ss(g16
g35
g3
g17
tp414
(dp415
I0
I0
sI20
I0
sI-45
I0
sI-20
I0
sI45
F0.25
ss(g2
g35
g35
g89
tp416
(dp417
I0
F-0.25
sI20
g8
(g10
S'Z\xef\xeb\x1a\xcaU\xeb\xbf'
tRp418
sI-45
g8
(g10
S'ul \xbb\x1a=\xd0\xbf'
tRp419
sI-20
I0
sI45
g8
(g10
S'\xb0\xbb\x96\x03-!\xcf\xbf'
tRp420
ss(g2
g35
g3
g89
tp421
(dp422
I0
I0
sI20
g8
(g10
S'\x12,\xd1\xc1}\xf8\xfe?'
tRp423
sI-45
g8
(g10
S'\x80\x8f\xbaA|y\x06@'
tRp424
sI-20
I0
sI45
F-0.011279279521350077
ss(g2
g35
g4
g101
tp425
(dp426
I0
g8
(g10
S'\xda\xa3\n#\x1f\xd7\xeb\xbf'
tRp427
sI20
F3.0236162170851717
sI-45
g8
(g10
S'\xa0\xedi^\xc2\x91\xfa?'
tRp428
sI-20
I0
sI45
g8
(g10
S'm\t\x07=\xc9\x7f\xfc?'
tRp429
ss(g16
g35
g2
g38
tp430
(dp431
I0
I0
sI20
I0
sI-45
I0
sI-20
I0
sI45
I0
ss(g16
g3
g35
g70
tp432
(dp433
I0
g8
(g10
S'\xc3\xd8\x88P\x97A\x0e\xc0'
tRp434
sI20
g8
(g10
S'\x92\xd1s7\x9b\x1e\x10\xc0'
tRp435
sI-45
g8
(g10
S'vN\x8cl\x02!\x10\xc0'
tRp436
sI-20
g8
(g10
S'\x16\x82\xc5\x90\x15f\x0e\xc0'
tRp437
sI45
g8
(g10
S':e\x0c\xec\xdas\x0f\xc0'
tRp438
ss(g16
g16
g2
g38
tp439
(dp440
I0
g8
(g10
S'\xd8W\xcf\xaepw\xf6\xbf'
tRp441
sI20
g8
(g10
S'\xe3\xdb{\xb1~=\xf4\xbf'
tRp442
sI-45
g8
(g10
S'2#\xee\t\x1a\xd4\xf1\xbf'
tRp443
sI-20
F-1.1650126772630185
sI45
g8
(g10
S'\xeeK[\x0c\xb7X\xf7\xbf'
tRp444
ss(g4
g3
g16
g32
tp445
(dp446
I0
I0
sI20
I0
sI-45
I0
sI-20
I0
sI45
I0
ss(g2
g3
g3
g101
tp447
(dp448
I0
g8
(g10
S'\x8e?\x90\xb2\x92\xc4\x11@'
tRp449
sI20
g8
(g10
S'\x06\xd8j2\xac=\x03@'
tRp450
sI-45
g8
(g10
S'\xef\x91\xcd&\x96\x80*@'
tRp451
sI-20
g8
(g10
S'\x93\x15+\xab\xa9w\x1d@'
tRp452
sI45
g8
(g10
S'\x06c\xb9\xe9n\xf4\r@'
tRp453
ss(g16
g35
g35
g101
tp454
(dp455
I0
I0
sI20
F0
sI-45
F0
sI-20
I0
sI45
I0
ss(g16
g4
g16
g32
tp456
(dp457
I0
I0
sI20
I0
sI-45
I0
sI-20
F0.25
sI45
I0
ss(g16
g2
g3
g70
tp458
(dp459
I0
g8
(g10
S'\xd6\x8bJ.\xebC\x0b\xc0'
tRp460
sI20
g8
(g10
S'\xd8\xff\x00\x0e}.\x0b\xc0'
tRp461
sI-45
g8
(g10
S'+\x07\xacx\x92\xc6\x0b\xc0'
tRp462
sI-20
g8
(g10
S'\xfbW\x99g\x94z\x08\xc0'
tRp463
sI45
g8
(g10
S'\xe4\x81\xd4\xd7\xc4M\x0b\xc0'
tRp464
ss(g2
g16
g16
g101
tp465
(dp466
I0
I0
sI20
I0
sI-45
I0
sI-20
F1.1599999999999999
sI45
I0
ss(g16
g3
g2
g38
tp467
(dp468
I0
g8
(g10
S'M\x16q\xcf\xe3F\x0b\xc0'
tRp469
sI20
g8
(g10
S'j\xae\x8c\x7f\x1f\xbd\t\xc0'
tRp470
sI-45
g8
(g10
S'\xc0\xaf\x9f\xc1\xfb;\x0b\xc0'
tRp471
sI-20
g8
(g10
S'\xe2aQ\xf5\x82 \x0b\xc0'
tRp472
sI45
g8
(g10
S'\xab\x83M\xbf\xb9\x95\x08\xc0'
tRp473
ss(g4
g16
g16
g5
tp474
(dp475
I0
I0
sI20
I0
sI-45
I0
sI-20
I0
sI45
I0
ss(g4
g35
g2
g17
tp476
(dp477
I0
I0
sI20
I0
sI-45
I0
sI-20
I0
sI45
I0
ss(g2
g3
g2
g70
tp478
(dp479
I0
g8
(g10
S'\xdc\xb1xa\xf59\x12\xc0'
tRp480
sI20
g8
(g10
S'z9\x14\xf6\xe63\x12\xc0'
tRp481
sI-45
g8
(g10
S'\xb8J\x08\xdaZB\x12\xc0'
tRp482
sI-20
g8
(g10
S'D\x18\xeba\xd42\x12\xc0'
tRp483
sI45
g8
(g10
S'ni\xeb\xba\xfd\x1d\x12\xc0'
tRp484
ss(g4
g4
g16
g32
tp485
(dp486
I0
I0
sI20
I0
sI-45
I0
sI-20
I0
sI45
I0
ss(g16
g35
g16
g89
tp487
(dp488
I0
I0
sI20
I0
sI-45
I0
sI-20
I0
sI45
I0
ss(g16
g35
g3
g5
tp489
(dp490
I0
g8
(g10
S'\xed\xc8l\x10\xb5\xbe\x0e\xc0'
tRp491
sI20
g8
(g10
S'5\xfc>\xe9\xf9\x1d\x0f\xc0'
tRp492
sI-45
g8
(g10
S'q\x97]s`\x99\x0e\xc0'
tRp493
sI-20
g8
(g10
S'\xb9\x06z\xa8~\x1a\x0f\xc0'
tRp494
sI45
g8
(g10
S'\xacnvch\x8b\r\xc0'
tRp495
ss(g2
g2
g3
g32
tp496
(dp497
I0
g8
(g10
S'\xea\xc8\xcc\xb8\x06C\xff\xbf'
tRp498
sI20
g8
(g10
S'\x14\xda\x97\xe4\x11.\x00\xc0'
tRp499
sI-45
g8
(g10
S'\xad\x12\xdbe\xcbJ\xfe\xbf'
tRp500
sI-20
g8
(g10
S'\xc4\xc4\x1f\xa791\xed\xbf'
tRp501
sI45
g8
(g10
S'q\x12pq\x04k\x00\xc0'
tRp502
ss(g16
g16
g2
g24
tp503
(dp504
I0
g8
(g10
S'\x905\xb1\x89\xf5!\x01\xc0'
tRp505
sI20
g8
(g10
S'Xbb$l\x06\x01\xc0'
tRp506
sI-45
g8
(g10
S'\xdaa<!\xfc+\x03\xc0'
tRp507
sI-20
g8
(g10
S'\xe9d@\xc3\x0eX\x01\xc0'
tRp508
sI45
g8
(g10
S'n|y\x9c\x80\xb7\x04\xc0'
tRp509
ss(g16
g2
g35
g101
tp510
(dp511
I0
I0
sI20
I0
sI-45
I0
sI-20
I0
sI45
I0
ss(g4
g2
g16
g17
tp512
(dp513
I0
I0
sI20
I0
sI-45
I0
sI-20
I0
sI45
I0
ss(g4
g4
g35
g101
tp514
(dp515
I0
I0
sI20
I0
sI-45
I0
sI-20
I0
sI45
I0
ss(g2
g4
g35
g32
tp516
(dp517
I0
I0
sI20
I0
sI-45
I0
sI-20
I0
sI45
I0
ss(g4
g35
g35
g70
tp518
(dp519
I0
I0
sI20
I0
sI-45
I0
sI-20
I0
sI45
I0
ss(g4
g16
g2
g38
tp520
(dp521
I0
I0
sI20
I0
sI-45
I0
sI-20
I0
sI45
I0
ss(g4
g4
g4
g89
tp522
(dp523
I0
I0
sI20
I0
sI-45
I0
sI-20
I0
sI45
I0
ss(g4
g3
g2
g32
tp524
(dp525
I0
I0
sI20
I0
sI-45
I0
sI-20
I0
sI45
I0
ss(g16
g35
g35
g46
tp526
(dp527
I0
I0
sI20
I0
sI-45
I0
sI-20
I0
sI45
I0
ss(g2
g2
g4
g24
tp528
(dp529
I0
g8
(g10
S'E\xca\x8e\x9d\x8d\xab\x10\xc0'
tRp530
sI20
g8
(g10
S'\x10M?\xd7_\x02\x11\xc0'
tRp531
sI-45
g8
(g10
S'\xb8h\xd1\x13\x84\x9d\x10\xc0'
tRp532
sI-20
g8
(g10
S'\xb1>iUd\xc4\x10\xc0'
tRp533
sI45
g8
(g10
S'\x8dy\xaaB\xae\xb4\x10\xc0'
tRp534
ss(g16
g4
g16
g101
tp535
(dp536
I0
I0
sI20
I0
sI-45
I0
sI-20
I0
sI45
I0
ss(g4
g35
g35
g38
tp537
(dp538
I0
I0
sI20
I0
sI-45
I0
sI-20
I0
sI45
I0
ss(g2
g2
g4
g5
tp539
(dp540
I0
g8
(g10
S'\x9a\xb6\xa1h\x05\xf9\x10\xc0'
tRp541
sI20
g8
(g10
S'zAb_N6\x11\xc0'
tRp542
sI-45
g8
(g10
S'_UWp~\x01\x11\xc0'
tRp543
sI-20
g8
(g10
S'\xc0\xff\xba\x9ao\x0c\x11\xc0'
tRp544
sI45
g8
(g10
S'HS"\x00t{\x10\xc0'
tRp545
ss(g16
g16
g16
g24
tp546
(dp547
I0
g8
(g10
S'\xd0t\x15\xe5$2\x05\xc0'
tRp548
sI20
g8
(g10
S'\x93\xf4j\xbd\xd2\xac\x06\xc0'
tRp549
sI-45
g8
(g10
S'B\x92H(2\x10\x08\xc0'
tRp550
sI-20
g8
(g10
S'\xa7Q\xa71{\xef\x07\xc0'
tRp551
sI45
g8
(g10
S'\x03\xda"\x13\x91m\x06\xc0'
tRp552
ss(g2
g35
g16
g101
tp553
(dp554
I0
I0
sI20
I0
sI-45
I0
sI-20
F0
sI45
F0
ss(g2
g35
g4
g32
tp555
(dp556
I0
I0
sI20
I0
sI-45
I0
sI-20
I0
sI45
I0
ss(g2
g4
g16
g89
tp557
(dp558
I0
I0
sI20
I0
sI-45
I0
sI-20
I0
sI45
I0
ss(g4
g16
g3
g17
tp559
(dp560
I0
I0
sI20
I0
sI-45
I0
sI-20
I0
sI45
I0
ss(g16
g3
g2
g24
tp561
(dp562
I0
g8
(g10
S'f\xbc\xb1\xfc\x98\x1f\n\xc0'
tRp563
sI20
g8
(g10
S'\xda\x84a\x8b$\x04\n\xc0'
tRp564
sI-45
g8
(g10
S'8\xdf\xa6>\xb4\xc6\x0b\xc0'
tRp565
sI-20
g8
(g10
S'\xb1\x17\x0cP\x8b\x82\x08\xc0'
tRp566
sI45
g8
(g10
S'\xb0\xe1\x850\xc8\xdb\t\xc0'
tRp567
ss(g16
g4
g4
g32
tp568
(dp569
I0
I0
sI20
I0
sI-45
I0
sI-20
I0
sI45
I0
ss(g16
g4
g35
g32
tp570
(dp571
I0
I0
sI20
I0
sI-45
I0
sI-20
I0
sI45
I0
ss(g2
g2
g4
g89
tp572
(dp573
I0
I0
sI20
g8
(g10
S'\xa3(~)\xc1\xe7\t@'
tRp574
sI-45
g8
(g10
S'\xddax?\xeb\xd0\xd4\xbf'
tRp575
sI-20
I0
sI45
F-0.012036711531195524
ss(g16
g3
g3
g17
tp576
(dp577
I0
I0
sI20
I0
sI-45
I0
sI-20
g8
(g10
S'\xc7\x05}\xa4\x86\xa3\xd9\xbf'
tRp578
sI45
I0
ss(g4
g35
g4
g70
tp579
(dp580
I0
I0
sI20
I0
sI-45
I0
sI-20
I0
sI45
I0
ss(g16
g16
g4
g17
tp581
(dp582
I0
I0
sI20
I0
sI-45
I0
sI-20
I0
sI45
F-0.92277084908462426
ss(g4
g16
g16
g24
tp583
(dp584
I0
I0
sI20
I0
sI-45
I0
sI-20
I0
sI45
I0
ss(g2
g2
g35
g17
tp585
(dp586
I0
F-1.4925758248597047
sI20
F-0.11366737880816655
sI-45
F-1.0963287406156128
sI-20
I0
sI45
g8
(g10
S'>\t\xda\x93\xf8\xc2\xfe?'
tRp587
ss(g16
g16
g35
g89
tp588
(dp589
I0
I0
sI20
I0
sI-45
I0
sI-20
I0
sI45
I0
ss(g4
g4
g4
g17
tp590
(dp591
I0
I0
sI20
I0
sI-45
I0
sI-20
I0
sI45
I0
ss(g16
g35
g4
g101
tp592
(dp593
I0
F-0.73230644186126737
sI20
I0
sI-45
I0
sI-20
I0
sI45
F0.25
ss(g16
g16
g4
g24
tp594
(dp595
I0
g8
(g10
S'K1k\xb5\xd6\x1b\x05\xc0'
tRp596
sI20
g8
(g10
S';\x19\x94\x10M\x80\x05\xc0'
tRp597
sI-45
g8
(g10
S'\x8d\xfek\x19\xb5\xb2\x01\xc0'
tRp598
sI-20
g8
(g10
S']\x95\x81\xec\xc4\x1a\x02\xc0'
tRp599
sI45
g8
(g10
S'C\x84\x99\x8aJc\x02\xc0'
tRp600
ss(g4
g35
g3
g17
tp601
(dp602
I0
I0
sI20
I0
sI-45
I0
sI-20
I0
sI45
I0
ss(g4
g4
g4
g70
tp603
(dp604
I0
I0
sI20
I0
sI-45
I0
sI-20
I0
sI45
I0
ss(g16
g2
g16
g24
tp605
(dp606
I0
g8
(g10
S'\x9e\x8f\xac\xac\x19P\xf8\xbf'
tRp607
sI20
g8
(g10
S'[\x86\xf6\xf4\x07L\xf6\xbf'
tRp608
sI-45
g8
(g10
S'\xb5\xda\x1a\x01\x02\x93\xf6\xbf'
tRp609
sI-20
g8
(g10
S'\xaew\xf8\xc1h\xd9\xf7\xbf'
tRp610
sI45
g8
(g10
S'\x7f\xa1\x99\xab\xd7\xef\xf7\xbf'
tRp611
ss(g4
g35
g3
g32
tp612
(dp613
I0
I0
sI20
I0
sI-45
I0
sI-20
I0
sI45
I0
ss(g2
g2
g16
g101
tp614
(dp615
I0
I0
sI20
g8
(g10
S'\xd4\x95\x83 ~\xbd\x1a@'
tRp616
sI-45
F-0.34124846892222582
sI-20
F0
sI45
F-0.72573514769759861
ss(g4
g35
g35
g89
tp617
(dp618
I0
I0
sI20
I0
sI-45
I0
sI-20
I0
sI45
I0
ss(g2
g3
g4
g38
tp619
(dp620
I0
g8
(g10
S'\xbb\r\xc6\xb1\x8b\x7f\x12\xc0'
tRp621
sI20
g8
(g10
S'\x96\x81\xb4G\x87w\x12\xc0'
tRp622
sI-45
g8
(g10
S'y\xc1l\x9d3|\x12\xc0'
tRp623
sI-20
g8
(g10
S'\xe8\xcc\xad:<{\x12\xc0'
tRp624
sI45
g8
(g10
S'\xba\xef\x91Fzs\x12\xc0'
tRp625
ss(g16
g35
g16
g17
tp626
(dp627
I0
I0
sI20
I0
sI-45
I0
sI-20
I0
sI45
I0
ss(g4
g35
g35
g24
tp628
(dp629
I0
I0
sI20
I0
sI-45
I0
sI-20
I0
sI45
I0
ss(g2
g35
g4
g46
tp630
(dp631
I0
I0
sI20
I0
sI-45
I0
sI-20
I0
sI45
I0
ss(g16
g4
g35
g17
tp632
(dp633
I0
I0
sI20
I0
sI-45
I0
sI-20
I0
sI45
I0
ss(g2
g2
g2
g32
tp634
(dp635
I0
I0
sI20
g8
(g10
S'\x92K\x99^\xa5\xcf\xd7\xbf'
tRp636
sI-45
I0
sI-20
F-1.0907376015689949
sI45
F0.25
ss(g16
g2
g2
g70
tp637
(dp638
I0
I0
sI20
I0
sI-45
I0
sI-20
I0
sI45
I0
ss(g4
g3
g16
g70
tp639
(dp640
I0
I0
sI20
I0
sI-45
I0
sI-20
I0
sI45
I0
ss(g2
g4
g35
g5
tp641
(dp642
I0
g8
(g10
S'\x9d\x93\xe5\xb9\x90\xca\x11\xc0'
tRp643
sI20
g8
(g10
S'\xc4@gs\xe6\x98\x12\xc0'
tRp644
sI-45
g8
(g10
S'\x13\xe0\xbaSD\xaa\x11\xc0'
tRp645
sI-20
g8
(g10
S'\x89\x1d\xd5(\xc28\x11\xc0'
tRp646
sI45
g8
(g10
S'r\xcd:)d\x94\x11\xc0'
tRp647
ss(g16
g4
g16
g89
tp648
(dp649
I0
I0
sI20
I0
sI-45
I0
sI-20
I0
sI45
I0
ss(g16
g2
g16
g46
tp650
(dp651
I0
g8
(g10
S'\xd7\x14\xb7\x08<\xed\xe0\xbf'
tRp652
sI20
F-0.20000000000000001
sI-45
g8
(g10
S'\x02]\xc5\xc1BH\xea\xbf'
tRp653
sI-20
F-0.20000000000000001
sI45
F-0.39200000000000007
ss(g16
g35
g3
g101
tp654
(dp655
I0
F0
sI20
F0
sI-45
F0
sI-20
F0
sI45
F1.9953500000000002
ss(g2
g35
g4
g17
tp656
(dp657
I0
I0
sI20
I0
sI-45
I0
sI-20
I0
sI45
I0
ss(g16
g2
g35
g89
tp658
(dp659
I0
I0
sI20
I0
sI-45
I0
sI-20
I0
sI45
I0
ss(g2
g35
g4
g24
tp660
(dp661
I0
g8
(g10
S'\xd6\x1f>\xebP\x14\x11\xc0'
tRp662
sI20
g8
(g10
S'=P\xf4\xb4\x86!\x11\xc0'
tRp663
sI-45
g8
(g10
S'r2\xf2]):\x11\xc0'
tRp664
sI-20
g8
(g10
S'h\xaa\xeb~E\xf3\x10\xc0'
tRp665
sI45
g8
(g10
S'\xb3\x89\x87\xa7A\xd6\x10\xc0'
tRp666
ss(g16
g2
g4
g5
tp667
(dp668
I0
I0
sI20
F-0.17086336927531684
sI-45
I0
sI-20
I0
sI45
F-0.25
ss(g16
g4
g3
g38
tp669
(dp670
I0
g8
(g10
S'\x10\xd8N\x02Z\xe8\x07\xc0'
tRp671
sI20
g8
(g10
S'\xfe\x8a\xfcH\xfc\xc0\x03\xc0'
tRp672
sI-45
g8
(g10
S'\x8f\xc8\xe7+\xda\xf1\x07\xc0'
tRp673
sI-20
g8
(g10
S'y\x0ffo#6\x08\xc0'
tRp674
sI45
g8
(g10
S'\xf1,i\xb1cv\x08\xc0'
tRp675
ss(g2
g4
g2
g32
tp676
(dp677
I0
F0.69841960937500014
sI20
I0
sI-45
I0
sI-20
F-0.094055664062499988
sI45
F-0.16000000000000003
ss(g16
g35
g4
g32
tp678
(dp679
I0
I0
sI20
I0
sI-45
I0
sI-20
I0
sI45
I0
ss(g16
g3
g2
g101
tp680
(dp681
I0
I0
sI20
I0
sI-45
I0
sI-20
I0
sI45
g8
(g10
S'\xe8\xa8\x8c\xfc\xf1\xc8\xe3\xbf'
tRp682
ss(g4
g16
g2
g32
tp683
(dp684
I0
I0
sI20
I0
sI-45
I0
sI-20
I0
sI45
I0
ss(g16
g4
g16
g46
tp685
(dp686
I0
I0
sI20
I0
sI-45
I0
sI-20
I0
sI45
F-0.20000000000000001
ss(g2
g4
g35
g17
tp687
(dp688
I0
F-0.20000000000000001
sI20
I0
sI-45
I0
sI-20
I0
sI45
I0
ss(g2
g4
g4
g89
tp689
(dp690
I0
I0
sI20
F0.099999999999999978
sI-45
g8
(g10
S'B\xea\xf5\xc3\x81\xa6\x00@'
tRp691
sI-20
I0
sI45
F0.0625
ss(g2
g4
g3
g46
tp692
(dp693
I0
F-0.43666617445672284
sI20
g8
(g10
S'K\x8d\x1c;\x81f\xfd?'
tRp694
sI-45
g8
(g10
S'zHq\x9eK\xd6\x10@'
tRp695
sI-20
I0
sI45
F-0.96878872750681344
ss(g2
g4
g35
g24
tp696
(dp697
I0
g8
(g10
S'b\x16\x0f?\xe7a\x11\xc0'
tRp698
sI20
g8
(g10
S'\x19\xc1K s\x9e\x11\xc0'
tRp699
sI-45
g8
(g10
S'\x82\x86Y4(\xde\x11\xc0'
tRp700
sI-20
g8
(g10
S'[\x07\xde?\x1fn\x11\xc0'
tRp701
sI45
g8
(g10
S'\xdb\xac\xcf\xc8\x19i\x11\xc0'
tRp702
ss(g4
g3
g4
g17
tp703
(dp704
I0
I0
sI20
I0
sI-45
I0
sI-20
I0
sI45
I0
ss(g16
g3
g35
g38
tp705
(dp706
I0
g8
(g10
S'\xd98P7k{\x0e\xc0'
tRp707
sI20
g8
(g10
S'\xf6R\x8bG\x7fZ\x0e\xc0'
tRp708
sI-45
g8
(g10
S'\xf3\xaf\x07\x83\xe3\xbb\r\xc0'
tRp709
sI-20
g8
(g10
S'\xc7zQ\xaf1\x07\x0f\xc0'
tRp710
sI45
g8
(g10
S'\xc5j\xc4\x87*X\x0f\xc0'
tRp711
ss(g2
g16
g3
g89
tp712
(dp713
I0
g8
(g10
S'\xbc\x02F\xb8*\xcb\xfb?'
tRp714
sI20
I0
sI-45
g8
(g10
S'\xce\xc5i@\xe9\xba\x1c@'
tRp715
sI-20
F-0.20000000000000001
sI45
g8
(g10
S'\n\xd0#\xa3\x92?\xbf\xbf'
tRp716
ss(g16
g2
g2
g101
tp717
(dp718
I0
I0
sI20
I0
sI-45
I0
sI-20
I0
sI45
F0
ss(g16
g4
g16
g17
tp719
(dp720
I0
I0
sI20
F0.25
sI-45
I0
sI-20
I0
sI45
I0
ss(g2
g2
g3
g46
tp721
(dp722
I0
I0
sI20
g8
(g10
S'\x87+G!\xe5\x07\xc7\xbf'
tRp723
sI-45
F-0.87499901546803871
sI-20
I0
sI45
g8
(g10
S"rx'T\x89{\xec?"
tRp724
ss(g16
g4
g16
g24
tp725
(dp726
I0
g8
(g10
S'\xda!5\xee\xb7\x8a\x01\xc0'
tRp727
sI20
g8
(g10
S'c\x0b\xb5c\n\x9d\x04\xc0'
tRp728
sI-45
g8
(g10
S'\x98\xce\x85\x07\x16\x8a\x04\xc0'
tRp729
sI-20
g8
(g10
S'\xbcl\x1aG\xce\x0f\x01\xc0'
tRp730
sI45
g8
(g10
S'\x11\x0e\xf9\xd8!\xea\x00\xc0'
tRp731
ss(g4
g4
g16
g70
tp732
(dp733
I0
I0
sI20
I0
sI-45
I0
sI-20
I0
sI45
I0
ss(g4
g16
g4
g89
tp734
(dp735
I0
I0
sI20
I0
sI-45
I0
sI-20
I0
sI45
I0
ss(g2
g16
g4
g70
tp736
(dp737
I0
g8
(g10
S'\xd3G\xb2+\x1f\xef\t\xc0'
tRp738
sI20
g8
(g10
S'\xa9MK\x9f\xb3\xf2\x0b\xc0'
tRp739
sI-45
g8
(g10
S'\xbdP\xee\x19*(\x0c\xc0'
tRp740
sI-20
g8
(g10
S'\xa8&\x06\xfa\xb9\xf4\x0c\xc0'
tRp741
sI45
g8
(g10
S'1\x1a\x02\x1a\r\x0f\x0b\xc0'
tRp742
ss(g4
g2
g3
g5
tp743
(dp744
I0
I0
sI20
I0
sI-45
I0
sI-20
I0
sI45
I0
ss(g4
g16
g35
g5
tp745
(dp746
I0
I0
sI20
I0
sI-45
I0
sI-20
I0
sI45
I0
ss(g16
g3
g35
g17
tp747
(dp748
I0
I0
sI20
g8
(g10
S'\x12\xed\xce\x13+R\xb3\xbf'
tRp749
sI-45
I0
sI-20
I0
sI45
F-0.20000000000000001
ss(g2
g16
g3
g5
tp750
(dp751
I0
g8
(g10
S'\x0f\x1em\xe1\xb6\x9d\x11\xc0'
tRp752
sI20
g8
(g10
S'\xd4\xf4\xb0\xee\xd2\xae\x11\xc0'
tRp753
sI-45
g8
(g10
S't\xa8{\xf5R\xa4\x11\xc0'
tRp754
sI-20
g8
(g10
S'J=\xf5\xb3\xbf\xd5\x11\xc0'
tRp755
sI45
g8
(g10
S'`\xa0\xfc\x1e\xa5\x9d\x11\xc0'
tRp756
ss(g4
g16
g4
g17
tp757
(dp758
I0
I0
sI20
I0
sI-45
I0
sI-20
I0
sI45
I0
ss(g4
g2
g35
g101
tp759
(dp760
I0
I0
sI20
I0
sI-45
I0
sI-20
I0
sI45
I0
ss(g2
g3
g35
g101
tp761
(dp762
I0
g8
(g10
S'\xe8\xb3W\xaf.\x05\x1f@'
tRp763
sI20
g8
(g10
S'D;\xf0\xcf\xa7\xa6\xe9?'
tRp764
sI-45
g8
(g10
S'~d\xc0\xe9vh#@'
tRp765
sI-20
g8
(g10
S'\x80Q\xaf2<\xd2\x1b@'
tRp766
sI45
g8
(g10
S'\xd0\xed\xbc\x01\xd7\xaf\x11@'
tRp767
ss(g4
g3
g16
g5
tp768
(dp769
I0
I0
sI20
I0
sI-45
I0
sI-20
I0
sI45
I0
ss(g16
g2
g3
g17
tp770
(dp771
I0
F-0.64162628681741896
sI20
F-0.73432476856938256
sI-45
g8
(g10
S'@\x154\x04\x8b\x8d\xe4\xbf'
tRp772
sI-20
F-0.20000000000000001
sI45
F-0.16800000000000004
ss(g16
g16
g4
g89
tp773
(dp774
I0
I0
sI20
I0
sI-45
I0
sI-20
I0
sI45
I0
ss(g4
g35
g16
g70
tp775
(dp776
I0
I0
sI20
I0
sI-45
I0
sI-20
I0
sI45
I0
ss(g4
g35
g2
g70
tp777
(dp778
I0
I0
sI20
I0
sI-45
I0
sI-20
I0
sI45
I0
ss(g4
g3
g3
g38
tp779
(dp780
I0
I0
sI20
I0
sI-45
I0
sI-20
I0
sI45
I0
ss(g16
g35
g16
g46
tp781
(dp782
I0
I0
sI20
I0
sI-45
I0
sI-20
I0
sI45
F-0.20000000000000001
ss(g4
g2
g4
g32
tp783
(dp784
I0
I0
sI20
I0
sI-45
I0
sI-20
I0
sI45
I0
ss(g2
g16
g2
g46
tp785
(dp786
I0
I0
sI20
I0
sI-45
F0
sI-20
I0
sI45
F1.3816708943646376
ss(g16
g2
g4
g101
tp787
(dp788
I0
I0
sI20
I0
sI-45
I0
sI-20
I0
sI45
I0
ss(g16
g4
g35
g5
tp789
(dp790
I0
I0
sI20
I0
sI-45
I0
sI-20
I0
sI45
I0
ss(g16
g16
g16
g38
tp791
(dp792
I0
g8
(g10
S'\x8cy\xbb\x08"\xac\x08\xc0'
tRp793
sI20
g8
(g10
S'\xaf\xb1\xd5 W\xac\x05\xc0'
tRp794
sI-45
g8
(g10
S'\x85\xd3\xb1R\x18J\x06\xc0'
tRp795
sI-20
g8
(g10
S'\xba\xd6t*\n\x8b\x05\xc0'
tRp796
sI45
g8
(g10
S'\x05\xf6k\x04\xca|\x05\xc0'
tRp797
ss(g4
g2
g4
g17
tp798
(dp799
I0
I0
sI20
I0
sI-45
I0
sI-20
I0
sI45
I0
ss(g2
g3
g4
g70
tp800
(dp801
I0
g8
(g10
S'N\xc99\xb7Nk\x11\xc0'
tRp802
sI20
g8
(g10
S'\x86k\xf5PXm\x11\xc0'
tRp803
sI-45
g8
(g10
S'\xe4\xbc\xdd\xac\x92\x8a\x11\xc0'
tRp804
sI-20
g8
(g10
S'6\xc7\xab\xd7yK\x10\xc0'
tRp805
sI45
g8
(g10
S'w\xf5P\xd3\x80C\x11\xc0'
tRp806
ss(g16
g16
g4
g46
tp807
(dp808
I0
I0
sI20
I0
sI-45
I0
sI-20
I0
sI45
I0
ss(g2
g3
g16
g32
tp809
(dp810
I0
I0
sI20
I0
sI-45
I0
sI-20
I0
sI45
g8
(g10
S'=\x98?-Y-\xf4?'
tRp811
ss(g16
g16
g35
g70
tp812
(dp813
I0
F-0.4656342007295029
sI20
F-0.20000000000000001
sI-45
I0
sI-20
I0
sI45
F-0.20000000000000001
ss(g4
g2
g2
g17
tp814
(dp815
I0
I0
sI20
I0
sI-45
I0
sI-20
I0
sI45
I0
ss(g2
g35
g2
g32
tp816
(dp817
I0
I0
sI20
I0
sI-45
I0
sI-20
I0
sI45
I0
ss(g16
g35
g4
g38
tp818
(dp819
I0
I0
sI20
I0
sI-45
I0
sI-20
I0
sI45
I0
ss(g4
g16
g35
g101
tp820
(dp821
I0
I0
sI20
I0
sI-45
I0
sI-20
I0
sI45
I0
ss(g4
g3
g35
g32
tp822
(dp823
I0
I0
sI20
I0
sI-45
I0
sI-20
I0
sI45
I0
ss(g16
g4
g2
g24
tp824
(dp825
I0
I0
sI20
I0
sI-45
I0
sI-20
I0
sI45
F-0.085640455867648235
ss(g16
g16
g3
g46
tp826
(dp827
I0
I0
sI20
I0
sI-45
I0
sI-20
I0
sI45
I0
ss(g16
g2
g3
g32
tp828
(dp829
I0
F-0.20000000000000001
sI20
F-1.3220112942121813
sI-45
I0
sI-20
g8
(g10
S'?\xc3\xbd\x93\x0c4\xf1\xbf'
tRp830
sI45
F-0.0062499999999999778
ss(g4
g35
g35
g46
tp831
(dp832
I0
I0
sI20
I0
sI-45
I0
sI-20
I0
sI45
I0
ss(g2
g3
g16
g101
tp833
(dp834
I0
g8
(g10
S'\x11\xfb\xea\xb0\xce\xe9\x15@'
tRp835
sI20
F0.72419736885303965
sI-45
I0
sI-20
g8
(g10
S'(T\x7f\x1c\xb8n\x01@'
tRp836
sI45
F-0.92807069129850761
ss(g2
g16
g2
g24
tp837
(dp838
I0
g8
(g10
S'J\xba\xc9\x14;\xaa\x10\xc0'
tRp839
sI20
g8
(g10
S'\xc8G\x84\x91%>\x11\xc0'
tRp840
sI-45
g8
(g10
S'J\x9fXs\x86U\x11\xc0'
tRp841
sI-20
g8
(g10
S'Q\x0c$K\xc7;\x11\xc0'
tRp842
sI45
g8
(g10
S' \xdc\xc8\x13U=\x11\xc0'
tRp843
ss(g2
g35
g2
g101
tp844
(dp845
I0
g8
(g10
S'1\xda~\xd1^\x0c\x05@'
tRp846
sI20
g8
(g10
S'b6{\xeb\x80\xb1\xe5?'
tRp847
sI-45
g8
(g10
S'\xd8n\xab\x9f\xdf\x95\x07@'
tRp848
sI-20
g8
(g10
S'\x96=\x83r\xc3f\x06@'
tRp849
sI45
F0.30199877758690596
ss(g16
g16
g3
g5
tp850
(dp851
I0
g8
(g10
S'BT\x18\x8arM\t\xc0'
tRp852
sI20
g8
(g10
S"\x96'\xdd&K*\x08\xc0"
tRp853
sI-45
g8
(g10
S'=\x0c\xceW&\xc0\x08\xc0'
tRp854
sI-20
g8
(g10
S'\x06`9\x04\xe0T\n\xc0'
tRp855
sI45
g8
(g10
S'\x9f\x91\xf3\xe7\xa7\x01\t\xc0'
tRp856
ss(g4
g16
g35
g24
tp857
(dp858
I0
I0
sI20
I0
sI-45
I0
sI-20
I0
sI45
I0
ss(g2
g4
g16
g5
tp859
(dp860
I0
g8
(g10
S'\xe6\xb1\x82\x16\xf5!\x11\xc0'
tRp861
sI20
g8
(g10
S'v\xe5E\xc0D\xce\x10\xc0'
tRp862
sI-45
g8
(g10
S'\xa7\x106\xbba\xb2\x10\xc0'
tRp863
sI-20
g8
(g10
S'\xb3\xd06)\x9e\xb8\x10\xc0'
tRp864
sI45
g8
(g10
S'\x89q\xb7\xdc\x87\x85\x10\xc0'
tRp865
ss(g16
g3
g35
g32
tp866
(dp867
I0
I0
sI20
I0
sI-45
I0
sI-20
I0
sI45
I0
ss(g2
g3
g2
g46
tp868
(dp869
I0
F-0.086311461200000023
sI20
F-1.6602368383738222
sI-45
g8
(g10
S"\xc6\x02\xd4\x07'\x1c\x15@"
tRp870
sI-20
F-0.20000000000000001
sI45
F-0.96725590191193311
ss(g4
g2
g3
g70
tp871
(dp872
I0
I0
sI20
I0
sI-45
I0
sI-20
I0
sI45
I0
ss(g4
g35
g4
g46
tp873
(dp874
I0
I0
sI20
I0
sI-45
I0
sI-20
I0
sI45
I0
ss(g4
g35
g4
g17
tp875
(dp876
I0
I0
sI20
I0
sI-45
I0
sI-20
I0
sI45
I0
ss(g16
g4
g2
g46
tp877
(dp878
I0
F-0.20000000000000001
sI20
F-0.2313856
sI-45
F-0.23200000000000004
sI-20
F-0.20000000000000001
sI45
F-0.20000000000000001
ss(g16
g16
g3
g89
tp879
(dp880
I0
I0
sI20
I0
sI-45
I0
sI-20
I0
sI45
I0
ss(g2
g16
g2
g38
tp881
(dp882
I0
g8
(g10
S'~9468\xb6\x11\xc0'
tRp883
sI20
g8
(g10
S'\x0bM=\x0e{\xa6\x11\xc0'
tRp884
sI-45
g8
(g10
S'\x9b\x95\xa3e\xb0\xab\x11\xc0'
tRp885
sI-20
g8
(g10
S'cU\xa4L\x8a\xa6\x11\xc0'
tRp886
sI45
g8
(g10
S'x`F\xfcV\xa5\x11\xc0'
tRp887
ss(g2
g3
g35
g89
tp888
(dp889
I0
I0
sI20
I0
sI-45
g8
(g10
S'\xe8$\xcb\xbd\x16\x1b\xc5\xbf'
tRp890
sI-20
I0
sI45
g8
(g10
S'\xdd{\xca\xce>\xe8\xe4\xbf'
tRp891
ss(g2
g16
g2
g5
tp892
(dp893
I0
g8
(g10
S'\xab\x9c\x7fs\xa7\xac\x10\xc0'
tRp894
sI20
g8
(g10
S'\\\xe6\xd7\x19\xbe\x96\x10\xc0'
tRp895
sI-45
g8
(g10
S'g\xd3<\x8f\xd6z\x10\xc0'
tRp896
sI-20
g8
(g10
S'\x00\xd4\xd9\x8a\xed\xd6\x10\xc0'
tRp897
sI45
g8
(g10
S'\x8d\x1b\xb9}\xfc\xb4\x10\xc0'
tRp898
ss(g2
g35
g35
g70
tp899
(dp900
I0
g8
(g10
S'[\x1a\xe4\xb6\xa6w\xfc\xbf'
tRp901
sI20
g8
(g10
S'\xb3\xe8B\xd7\xea\xc2\xf2\xbf'
tRp902
sI-45
g8
(g10
S'\xc8\xc4\xf5\xd8}\xfc\xf9\xbf'
tRp903
sI-20
g8
(g10
S'\xfc\xfd9\xef,\xde\xf5\xbf'
tRp904
sI45
g8
(g10
S'g\xf7\xee\x92/2\xf3\xbf'
tRp905
ss(g4
g2
g2
g38
tp906
(dp907
I0
I0
sI20
I0
sI-45
I0
sI-20
I0
sI45
I0
ss(g16
g35
g2
g17
tp908
(dp909
I0
I0
sI20
I0
sI-45
I0
sI-20
I0
sI45
I0
ss(g4
g2
g35
g5
tp910
(dp911
I0
I0
sI20
I0
sI-45
I0
sI-20
I0
sI45
I0
ss(g16
g16
g16
g101
tp912
(dp913
I0
I0
sI20
I0
sI-45
I0
sI-20
I0
sI45
I0
ss(g4
g16
g2
g70
tp914
(dp915
I0
I0
sI20
I0
sI-45
I0
sI-20
I0
sI45
I0
ss(g16
g4
g2
g38
tp916
(dp917
I0
I0
sI20
I0
sI-45
I0
sI-20
I0
sI45
I0
ss(g2
g16
g16
g70
tp918
(dp919
I0
g8
(g10
S'\xc8\xc2Le\xcb#\t\xc0'
tRp920
sI20
g8
(g10
S'\xbd\xaa\xf6\xb5\xb0h\n\xc0'
tRp921
sI-45
g8
(g10
S'\xf4EJ\x0b\xc6\x15\x08\xc0'
tRp922
sI-20
g8
(g10
S'\xad\x0b\xe2\xaa\xab\x00\t\xc0'
tRp923
sI45
g8
(g10
S'z\xd8&\xef\xb0z\n\xc0'
tRp924
ss(g2
g4
g4
g5
tp925
(dp926
I0
g8
(g10
S"\xb4\xd7\x8b\x94\xe9'\x11\xc0"
tRp927
sI20
g8
(g10
S'\xf3\xaev\xfd\x9b\xff\x0f\xc0'
tRp928
sI-45
g8
(g10
S'\xa3\xf1\r\xe26{\x10\xc0'
tRp929
sI-20
g8
(g10
S'\x98\xf3x\xa2\x15[\x10\xc0'
tRp930
sI45
g8
(g10
S'T\xeaaEMo\x10\xc0'
tRp931
ss(g2
g16
g35
g24
tp932
(dp933
I0
g8
(g10
S'!\xdb\xd4\xb9\xcd!\x11\xc0'
tRp934
sI20
g8
(g10
S'aZJ\x03|)\x11\xc0'
tRp935
sI-45
g8
(g10
S'\xf9B\xbeQe9\x11\xc0'
tRp936
sI-20
g8
(g10
S' ?{y\xb3@\x11\xc0'
tRp937
sI45
g8
(g10
S'\x90\x10\x02\xe7B0\x11\xc0'
tRp938
ss(g2
g16
g16
g38
tp939
(dp940
I0
g8
(g10
S'7E\x01\xee<\xd5\x11\xc0'
tRp941
sI20
g8
(g10
S'\xfc\xa9-\xba\xfao\x11\xc0'
tRp942
sI-45
g8
(g10
S'\xea9\xcdPi\xba\x11\xc0'
tRp943
sI-20
g8
(g10
S'\xeb\xe1_\x15`\xbe\x11\xc0'
tRp944
sI45
g8
(g10
S'\x8c\xd4\xafB\xc5M\x12\xc0'
tRp945
ss(g4
g4
g35
g70
tp946
(dp947
I0
I0
sI20
I0
sI-45
I0
sI-20
I0
sI45
I0
ss(g4
g2
g16
g38
tp948
(dp949
I0
I0
sI20
I0
sI-45
I0
sI-20
I0
sI45
I0
ss(g4
g3
g3
g5
tp950
(dp951
I0
I0
sI20
I0
sI-45
I0
sI-20
I0
sI45
I0
ss(g4
g2
g35
g17
tp952
(dp953
I0
I0
sI20
I0
sI-45
I0
sI-20
I0
sI45
I0
ss(g4
g35
g35
g101
tp954
(dp955
I0
I0
sI20
I0
sI-45
I0
sI-20
I0
sI45
I0
ss(g2
g4
g2
g89
tp956
(dp957
I0
F-0.20000000000000001
sI20
F-0.20000000000000001
sI-45
F-0.029588507582366953
sI-20
F-0.20000000000000001
sI45
F-0.20000000000000001
ss(g4
g16
g3
g70
tp958
(dp959
I0
I0
sI20
I0
sI-45
I0
sI-20
I0
sI45
I0
ss(g2
g2
g2
g24
tp960
(dp961
I0
g8
(g10
S'\x00\xaa|.\x86\x87\x13\xc0'
tRp962
sI20
g8
(g10
S'\x11]\x0f\xf3\xfa\xc6\x13\xc0'
tRp963
sI-45
g8
(g10
S'\xde\x7f\x12d\x8f\xc8\x0f\xc0'
tRp964
sI-20
g8
(g10
S'\x1bPLg\x0e\xb2\x12\xc0'
tRp965
sI45
g8
(g10
S'\xf7\xfa\xeb\x1e\xc2\x94\x13\xc0'
tRp966
ss(g2
g4
g35
g70
tp967
(dp968
I0
g8
(g10
S'TJ\xbf\xb5\xe0J\xfd\xbf'
tRp969
sI20
g8
(g10
S'j\x03\xf8\xe3\x10\xb0\x03\xc0'
tRp970
sI-45
g8
(g10
S"\\\xb2\xd9'\x91\x0f\xff\xbf"
tRp971
sI-20
g8
(g10
S'\xfb\xa4\xf1\xb2Rz\xf9\xbf'
tRp972
sI45
g8
(g10
S'\xac\x19\x9d\xdf~\xb3\xfc\xbf'
tRp973
ss(g2
g2
g2
g17
tp974
(dp975
I0
I0
sI20
I0
sI-45
I0
sI-20
F1.2306536815730031
sI45
F0.28156233309183598
ss(g4
g16
g35
g38
tp976
(dp977
I0
I0
sI20
I0
sI-45
I0
sI-20
I0
sI45
I0
ss(g16
g3
g3
g70
tp978
(dp979
I0
g8
(g10
S'\x03=\xd0h\x97b\n\xc0'
tRp980
sI20
g8
(g10
S'\xf4\xa0\x97\xc4\x85\x1e\x0b\xc0'
tRp981
sI-45
g8
(g10
S'~:\xb2\xcfi7\x0c\xc0'
tRp982
sI-20
g8
(g10
S'Y\x9a\xda\x8a\x16\x81\n\xc0'
tRp983
sI45
g8
(g10
S'{H\xdaq$X\x0b\xc0'
tRp984
ss(g16
g2
g4
g70
tp985
(dp986
I0
I0
sI20
I0
sI-45
I0
sI-20
g8
(g10
S'\xc8\x89\x1c~L\xc5\xdb\xbf'
tRp987
sI45
F0.0056729787274642368
ss(g4
g35
g4
g24
tp988
(dp989
I0
I0
sI20
I0
sI-45
I0
sI-20
I0
sI45
I0
ss(g4
g35
g4
g32
tp990
(dp991
I0
I0
sI20
I0
sI-45
I0
sI-20
I0
sI45
I0
ss(g4
g3
g16
g38
tp992
(dp993
I0
I0
sI20
I0
sI-45
I0
sI-20
I0
sI45
I0
ss(g2
g35
g35
g24
tp994
(dp995
I0
g8
(g10
S'\xd6\xf5l\xfe>\xa5\x10\xc0'
tRp996
sI20
g8
(g10
S'\xc5\xf8\x9fN\xefe\x11\xc0'
tRp997
sI-45
g8
(g10
S'\xf7#[-\x07\x91\x11\xc0'
tRp998
sI-20
g8
(g10
S'Rgag\xfd\xf3\x11\xc0'
tRp999
sI45
g8
(g10
S'\xce^\xceMc\xa2\x11\xc0'
tRp1000
ss(g16
g16
g35
g32
tp1001
(dp1002
I0
I0
sI20
I0
sI-45
I0
sI-20
I0
sI45
I0
ss(g4
g4
g35
g32
tp1003
(dp1004
I0
I0
sI20
I0
sI-45
I0
sI-20
I0
sI45
I0
ss(g2
g2
g3
g38
tp1005
(dp1006
I0
g8
(g10
S'\xa2\x80\xb5,\xbc$\x11\xc0'
tRp1007
sI20
g8
(g10
S'Wa\xfb9\xe7\xa4\x12\xc0'
tRp1008
sI-45
g8
(g10
S'\xb9+\x80e\xbf\x9b\x12\xc0'
tRp1009
sI-20
g8
(g10
S'd8\xb2\xb3\xc8c\x13\xc0'
tRp1010
sI45
g8
(g10
S'\xbc\x8c@_F\x15\x13\xc0'
tRp1011
ss(g2
g2
g2
g5
tp1012
(dp1013
I0
g8
(g10
S'3\xf6\x96\xb87\xd2\x13\xc0'
tRp1014
sI20
g8
(g10
S'N\xafB\x0cY\x89\x13\xc0'
tRp1015
sI-45
g8
(g10
S'2\x13\xb9\xa6\x8aI\x11\xc0'
tRp1016
sI-20
g8
(g10
S'~\xfcZ\xdc)\x04\x12\xc0'
tRp1017
sI45
g8
(g10
S'.~\x1cL\xfc\xd3\x12\xc0'
tRp1018
ss(g2
g35
g16
g24
tp1019
(dp1020
I0
g8
(g10
S'\xc4&]?\xe0m\x10\xc0'
tRp1021
sI20
g8
(g10
S'\xc5\x07\x8d[\xe0m\x10\xc0'
tRp1022
sI-45
g8
(g10
S'>\xaf\xb3\xc3\xfbA\x10\xc0'
tRp1023
sI-20
g8
(g10
S'\xd8\x01\x92\xd6\xc9^\x10\xc0'
tRp1024
sI45
g8
(g10
S"'\xea\xab\xf6\xd2\xb9\x10\xc0"
tRp1025
ss(g16
g2
g2
g24
tp1026
(dp1027
I0
I0
sI20
I0
sI-45
I0
sI-20
I0
sI45
I0
ss(g4
g35
g2
g38
tp1028
(dp1029
I0
I0
sI20
I0
sI-45
I0
sI-20
I0
sI45
I0
ss(g2
g2
g4
g101
tp1030
(dp1031
I0
I0
sI20
F1.0096337299710203
sI-45
g8
(g10
S'VT\x05\xe2\x9a2\xe2?'
tRp1032
sI-20
g8
(g10
S'0/\xff\xf2Ro\t@'
tRp1033
sI45
F-0.4864525672282527
ss(g16
g4
g4
g17
tp1034
(dp1035
I0
I0
sI20
F-0.0625
sI-45
I0
sI-20
I0
sI45
I0
ss(g2
g3
g3
g46
tp1036
(dp1037
I0
I0
sI20
g8
(g10
S"\xe0w'DZ\xed\xfc?"
tRp1038
sI-45
g8
(g10
S'?\xd4\xf3w,r\r@'
tRp1039
sI-20
F0.51610923610518222
sI45
I0
ss(g4
g3
g3
g24
tp1040
(dp1041
I0
I0
sI20
I0
sI-45
I0
sI-20
I0
sI45
I0
ss(g2
g35
g2
g17
tp1042
(dp1043
I0
I0
sI20
I0
sI-45
I0
sI-20
I0
sI45
F-1.6105179144671791
ss(g4
g2
g2
g32
tp1044
(dp1045
I0
I0
sI20
I0
sI-45
I0
sI-20
I0
sI45
I0
ss(g2
g2
g2
g89
tp1046
(dp1047
I0
g8
(g10
S'=^\x1f,\tI\xd9\xbf'
tRp1048
sI20
g8
(g10
S'\x89M\x10\xd7Jm\xf2\xbf'
tRp1049
sI-45
g8
(g10
S'c\xb2\xc5\x13\xddI\xe8\xbf'
tRp1050
sI-20
g8
(g10
S'b\xe5\x94\xd1\xcc\xad\xf2\xbf'
tRp1051
sI45
F-0.85661333378735172
ss(g4
g4
g35
g24
tp1052
(dp1053
I0
I0
sI20
I0
sI-45
I0
sI-20
I0
sI45
I0
ss(g16
g2
g35
g24
tp1054
(dp1055
I0
I0
sI20
I0
sI-45
I0
sI-20
I0
sI45
I0
ss(g4
g4
g35
g5
tp1056
(dp1057
I0
I0
sI20
I0
sI-45
I0
sI-20
I0
sI45
I0
ss(g4
g3
g16
g101
tp1058
(dp1059
I0
I0
sI20
I0
sI-45
I0
sI-20
I0
sI45
I0
ss(g4
g3
g3
g70
tp1060
(dp1061
I0
I0
sI20
I0
sI-45
I0
sI-20
I0
sI45
I0
ss(g16
g35
g3
g70
tp1062
(dp1063
I0
g8
(g10
S'\xed\xb3O\xc4\xc1r\x0f\xc0'
tRp1064
sI20
g8
(g10
S'UY\xa3\xa4\x99;\x0e\xc0'
tRp1065
sI-45
g8
(g10
S'!M\xfa{m!\x0e\xc0'
tRp1066
sI-20
g8
(g10
S'\x0eK\xe3\x1a~\x82\x0f\xc0'
tRp1067
sI45
g8
(g10
S'\xa5\xb7\x0b\x9aw?\x0f\xc0'
tRp1068
ss(g4
g4
g3
g46
tp1069
(dp1070
I0
I0
sI20
I0
sI-45
I0
sI-20
I0
sI45
I0
ss(g16
g35
g4
g89
tp1071
(dp1072
I0
I0
sI20
I0
sI-45
I0
sI-20
I0
sI45
I0
ss(g2
g35
g16
g5
tp1073
(dp1074
I0
g8
(g10
S'\xb4F\xa0p\xe1\xce\x10\xc0'
tRp1075
sI20
g8
(g10
S'TR\x18o\xf1\xb6\x10\xc0'
tRp1076
sI-45
g8
(g10
S'\x1f+x\x0cn\xca\x10\xc0'
tRp1077
sI-20
g8
(g10
S'\x08\x9a\x95\xaeL\x9a\x10\xc0'
tRp1078
sI45
g8
(g10
S'\xf6V\x97c \xcd\x10\xc0'
tRp1079
ss(g4
g4
g35
g46
tp1080
(dp1081
I0
I0
sI20
I0
sI-45
I0
sI-20
I0
sI45
I0
ss(g4
g35
g3
g89
tp1082
(dp1083
I0
I0
sI20
I0
sI-45
I0
sI-20
I0
sI45
I0
ss(g2
g4
g3
g101
tp1084
(dp1085
I0
g8
(g10
S'@m\xbdh\xa6\xbb!@'
tRp1086
sI20
g8
(g10
S'.\x82\x19w\x01k\x1e@'
tRp1087
sI-45
g8
(g10
S'<\xce\xd6W\xd8\xb6#@'
tRp1088
sI-20
g8
(g10
S'\x15\xae(\xf8~\r\x18@'
tRp1089
sI45
g8
(g10
S'\xa25$\xad\x06p @'
tRp1090
ss(g16
g16
g16
g32
tp1091
(dp1092
I0
I0
sI20
I0
sI-45
I0
sI-20
I0
sI45
I0
ss(g4
g4
g2
g24
tp1093
(dp1094
I0
I0
sI20
I0
sI-45
I0
sI-20
I0
sI45
I0
ss(g4
g2
g16
g32
tp1095
(dp1096
I0
I0
sI20
I0
sI-45
I0
sI-20
I0
sI45
I0
ss(g2
g35
g16
g38
tp1097
(dp1098
I0
g8
(g10
S'\x89\xb2M\xeb\x85\x87\x11\xc0'
tRp1099
sI20
g8
(g10
S'\xf2\xb2J\x87\x92\x94\x11\xc0'
tRp1100
sI-45
g8
(g10
S'{\xc2[\x03\xafe\x11\xc0'
tRp1101
sI-20
g8
(g10
S'\xcd\xc0\xf6;X\x15\x12\xc0'
tRp1102
sI45
g8
(g10
S'\xfe\xd53\xe2V\x86\x11\xc0'
tRp1103
ss(g4
g35
g3
g38
tp1104
(dp1105
I0
I0
sI20
I0
sI-45
I0
sI-20
I0
sI45
I0
ss(g4
g3
g2
g17
tp1106
(dp1107
I0
I0
sI20
I0
sI-45
I0
sI-20
I0
sI45
I0
ss(g2
g3
g3
g70
tp1108
(dp1109
I0
g8
(g10
S'en\x91\xaa\xf8\x9d\x11\xc0'
tRp1110
sI20
g8
(g10
S'X\x9e\x9c\xe2\x1c\x7f\x13\xc0'
tRp1111
sI-45
g8
(g10
S'3<\x8aSr\xfe\x10\xc0'
tRp1112
sI-20
g8
(g10
S'\x07\xab"h6\xbc\x12\xc0'
tRp1113
sI45
g8
(g10
S'M\xcc\xe1\xdc)\xae\x12\xc0'
tRp1114
ss(g2
g3
g2
g17
tp1115
(dp1116
I0
I0
sI20
I0
sI-45
F-0.65199792774720478
sI-20
I0
sI45
g8
(g10
S'\x94\xba\xc4\x18\xc7\x89\x08@'
tRp1117
ss(g4
g16
g2
g46
tp1118
(dp1119
I0
I0
sI20
I0
sI-45
I0
sI-20
I0
sI45
I0
ss(g16
g3
g3
g38
tp1120
(dp1121
I0
g8
(g10
S'z\xb69\xd1\x81\x97\n\xc0'
tRp1122
sI20
g8
(g10
S'@\x86\xeb\n\xad\xe4\t\xc0'
tRp1123
sI-45
g8
(g10
S'\xfe\xbaK\xb7g\x8f\x06\xc0'
tRp1124
sI-20
g8
(g10
S'Q\n\xbet\xb7\xdc\x08\xc0'
tRp1125
sI45
g8
(g10
S'\x97\xe5Y\xb4\x08\x9b\t\xc0'
tRp1126
ss(g4
g4
g35
g89
tp1127
(dp1128
I0
I0
sI20
I0
sI-45
I0
sI-20
I0
sI45
I0
ss(g2
g4
g35
g89
tp1129
(dp1130
I0
I0
sI20
I0
sI-45
I0
sI-20
I0
sI45
I0
ss(g2
g3
g4
g32
tp1131
(dp1132
I0
F-0.84071562794093568
sI20
F-1.4669670029018747
sI-45
I0
sI-20
F0
sI45
F-0.88821963353843225
ss(g2
g16
g35
g46
tp1133
(dp1134
I0
I0
sI20
I0
sI-45
I0
sI-20
I0
sI45
I0
ss(g16
g2
g16
g38
tp1135
(dp1136
I0
g8
(g10
S'\x9am\x04\x8f\x9fE\xf9\xbf'
tRp1137
sI20
g8
(g10
S'!\xd7\xed\x8f\x06\xa7\xfb\xbf'
tRp1138
sI-45
g8
(g10
S'P\x82\x11\xd4\xd02\xfb\xbf'
tRp1139
sI-20
g8
(g10
S'b4OY\x1a\xd4\xfb\xbf'
tRp1140
sI45
g8
(g10
S'F\xffQ\x08\x9e\x01\xfb\xbf'
tRp1141
ss(g16
g35
g35
g5
tp1142
(dp1143
I0
I0
sI20
I0
sI-45
I0
sI-20
I0
sI45
I0
ss(g4
g4
g3
g17
tp1144
(dp1145
I0
I0
sI20
I0
sI-45
I0
sI-20
I0
sI45
I0
ss(g16
g4
g2
g70
tp1146
(dp1147
I0
I0
sI20
I0
sI-45
g8
(g10
S'\xa9\x9c)3\x9b\xb2\xd1\xbf'
tRp1148
sI-20
I0
sI45
I0
ss(g16
g35
g35
g89
tp1149
(dp1150
I0
I0
sI20
I0
sI-45
I0
sI-20
I0
sI45
I0
ss(g4
g3
g2
g5
tp1151
(dp1152
I0
I0
sI20
I0
sI-45
I0
sI-20
I0
sI45
I0
ss(g16
g3
g2
g5
tp1153
(dp1154
I0
g8
(g10
S'\xfb\xdc\x87<\x91\x1f\x07\xc0'
tRp1155
sI20
g8
(g10
S'\x99\xa7L\xf5@\xd5\t\xc0'
tRp1156
sI-45
g8
(g10
S'\xff\xb6\x8fJ\xe6g\t\xc0'
tRp1157
sI-20
g8
(g10
S'\xf3#\xb0q\xbe\xb3\t\xc0'
tRp1158
sI45
g8
(g10
S'\x16\xd49Y$\x92\t\xc0'
tRp1159
ss(g4
g16
g2
g89
tp1160
(dp1161
I0
I0
sI20
I0
sI-45
I0
sI-20
I0
sI45
I0
ss(g2
g3
g3
g89
tp1162
(dp1163
I0
I0
sI20
g8
(g10
S'ff7|1q\x13@'
tRp1164
sI-45
g8
(g10
S'LbG\x17Wz\x18@'
tRp1165
sI-20
g8
(g10
S'(\x93)4Wr\x17@'
tRp1166
sI45
g8
(g10
S'\xe6\xfa\x84\xc9+]\x10@'
tRp1167
ss(g2
g4
g35
g46
tp1168
(dp1169
I0
I0
sI20
I0
sI-45
I0
sI-20
I0
sI45
I0
ss(g16
g35
g2
g70
tp1170
(dp1171
I0
I0
sI20
I0
sI-45
I0
sI-20
I0
sI45
I0
ss(g4
g2
g16
g24
tp1172
(dp1173
I0
I0
sI20
I0
sI-45
I0
sI-20
I0
sI45
I0
ss(g2
g35
g3
g101
tp1174
(dp1175
I0
g8
(g10
S'<\xc1\xb6\xaa\xd5\xdf\x18@'
tRp1176
sI20
g8
(g10
S'\x175:zc\xeb\x1f@'
tRp1177
sI-45
g8
(g10
S'\xa5\x1b\x90wN\xa3)@'
tRp1178
sI-20
g8
(g10
S'\x96(\xd1=a\xc9\x1e@'
tRp1179
sI45
g8
(g10
S' y\xdb@\x87\xe4\xf1?'
tRp1180
ss(g4
g35
g16
g17
tp1181
(dp1182
I0
I0
sI20
I0
sI-45
I0
sI-20
I0
sI45
I0
ss(g4
g16
g2
g17
tp1183
(dp1184
I0
I0
sI20
I0
sI-45
I0
sI-20
I0
sI45
I0
ss(g2
g16
g16
g24
tp1185
(dp1186
I0
g8
(g10
S'<\xba\x0ch\xed\xe1\x10\xc0'
tRp1187
sI20
g8
(g10
S"'D\xbart\x00\x11\xc0"
tRp1188
sI-45
g8
(g10
S'\x81\x98\xab\xa7{\xde\x10\xc0'
tRp1189
sI-20
g8
(g10
S'\x9d\x17I\xa4\x87\xc9\x10\xc0'
tRp1190
sI45
g8
(g10
S"\xc8'Z\xd8\x19\xe3\x10\xc0"
tRp1191
ss(g16
g3
g16
g70
tp1192
(dp1193
I0
g8
(g10
S'\xc7\xbb\x82\x0c$\xd3\x06\xc0'
tRp1194
sI20
g8
(g10
S'\xc4\x80(=1G\x06\xc0'
tRp1195
sI-45
g8
(g10
S'>1\xe8\x8e\x08\x8e\x04\xc0'
tRp1196
sI-20
g8
(g10
S'\xac\xed\xb83N\x16\x04\xc0'
tRp1197
sI45
g8
(g10
S'\xe6\xa4u\xde\xfe\x8b\x04\xc0'
tRp1198
ss(g2
g4
g2
g17
tp1199
(dp1200
I0
I0
sI20
I0
sI-45
F0
sI-20
F0.24609375
sI45
I0
ss(g16
g35
g35
g17
tp1201
(dp1202
I0
I0
sI20
I0
sI-45
I0
sI-20
I0
sI45
I0
ss(g2
g4
g2
g38
tp1203
(dp1204
I0
g8
(g10
S'\x0b\xf8\xf5/\xa9\x8a\x11\xc0'
tRp1205
sI20
g8
(g10
S'\x9aa\x1c\xee\xaf\x83\x11\xc0'
tRp1206
sI-45
g8
(g10
S'\x02\x93\xb3\x11&x\x11\xc0'
tRp1207
sI-20
g8
(g10
S'\x8c\x9d\xdf\xa4\xdd\x94\x11\xc0'
tRp1208
sI45
g8
(g10
S'gg\xa8\xf0\xfbw\x11\xc0'
tRp1209
ss(g2
g16
g16
g17
tp1210
(dp1211
I0
I0
sI20
I0
sI-45
I0
sI-20
I0
sI45
I0
ss(g4
g35
g2
g101
tp1212
(dp1213
I0
I0
sI20
I0
sI-45
I0
sI-20
I0
sI45
I0
ss(g2
g2
g16
g32
tp1214
(dp1215
I0
I0
sI20
I0
sI-45
I0
sI-20
I0
sI45
I0
ss(g2
g35
g3
g24
tp1216
(dp1217
I0
g8
(g10
S'\x1e\xfaZ,\xc0K\x12\xc0'
tRp1218
sI20
g8
(g10
S'\xcc$\xf7T)\x12\x12\xc0'
tRp1219
sI-45
g8
(g10
S'\xd1\x82c\xee!\x07\x12\xc0'
tRp1220
sI-20
g8
(g10
S'vE\xbcTd\xd9\x12\xc0'
tRp1221
sI45
g8
(g10
S'\xec\xa8\xc4Y\xaa2\x12\xc0'
tRp1222
ss(g2
g35
g16
g70
tp1223
(dp1224
I0
g8
(g10
S'\xea\xd7N\x10\x90!\xec\xbf'
tRp1225
sI20
g8
(g10
S'\xbc\x07\x8b\x9dJ\xe5\xf3\xbf'
tRp1226
sI-45
g8
(g10
S'\x98M\x9cW\x16-\xf2\xbf'
tRp1227
sI-20
F-0.61021592806969704
sI45
g8
(g10
S'\x96;\xe9Jb\xa6\xe5\xbf'
tRp1228
ss(g4
g2
g16
g46
tp1229
(dp1230
I0
I0
sI20
I0
sI-45
I0
sI-20
I0
sI45
I0
ss(g16
g4
g4
g101
tp1231
(dp1232
I0
I0
sI20
I0
sI-45
I0
sI-20
I0
sI45
I0
ss(g4
g35
g16
g5
tp1233
(dp1234
I0
I0
sI20
I0
sI-45
I0
sI-20
I0
sI45
I0
ss(g4
g2
g2
g70
tp1235
(dp1236
I0
I0
sI20
I0
sI-45
I0
sI-20
I0
sI45
I0
ss(g2
g16
g16
g46
tp1237
(dp1238
I0
F0.25
sI20
I0
sI-45
I0
sI-20
I0
sI45
g8
(g10
S'_t\x973U\x9b\xf8?'
tRp1239
ss(g4
g4
g3
g38
tp1240
(dp1241
I0
I0
sI20
I0
sI-45
I0
sI-20
I0
sI45
I0
ss(g16
g35
g16
g70
tp1242
(dp1243
I0
F-0.20000000000000001
sI20
g8
(g10
S'\xcc+Z\xb6\xe5\x91\xe3\xbf'
tRp1244
sI-45
I0
sI-20
g8
(g10
S'\x10od\x1fj}\xe5\xbf'
tRp1245
sI45
F-0.25
ss(g16
g16
g2
g17
tp1246
(dp1247
I0
I0
sI20
I0
sI-45
I0
sI-20
I0
sI45
I0
ss(g4
g16
g16
g17
tp1248
(dp1249
I0
I0
sI20
I0
sI-45
I0
sI-20
I0
sI45
I0
ss(g4
g16
g16
g38
tp1250
(dp1251
I0
I0
sI20
I0
sI-45
I0
sI-20
I0
sI45
I0
ss(g4
g2
g3
g38
tp1252
(dp1253
I0
I0
sI20
I0
sI-45
I0
sI-20
I0
sI45
I0
ss(g4
g2
g3
g89
tp1254
(dp1255
I0
I0
sI20
I0
sI-45
I0
sI-20
I0
sI45
I0
ss(g16
g35
g3
g38
tp1256
(dp1257
I0
g8
(g10
S'\x9d>\xab.\xf1x\r\xc0'
tRp1258
sI20
g8
(g10
S'3s\xc0\xe9rR\x0f\xc0'
tRp1259
sI-45
g8
(g10
S'\x08\n\xbc\x93\x18\x14\x0f\xc0'
tRp1260
sI-20
g8
(g10
S'\n\x13\xf9\xf5y-\x0f\xc0'
tRp1261
sI45
g8
(g10
S'^t\x11\xf8[\xe0\x0f\xc0'
tRp1262
ss(g2
g35
g16
g32
tp1263
(dp1264
I0
I0
sI20
I0
sI-45
I0
sI-20
I0
sI45
I0
ss(g16
g3
g3
g24
tp1265
(dp1266
I0
g8
(g10
S'\xe9\xf4\x8bb\xb68\x0b\xc0'
tRp1267
sI20
g8
(g10
S'\x8eX\x97\xac\xa8)\x0b\xc0'
tRp1268
sI-45
g8
(g10
S'D5\xdd\xcb\x0cA\x0b\xc0'
tRp1269
sI-20
g8
(g10
S'\xa4>\xf5V\x93\xc2\n\xc0'
tRp1270
sI45
g8
(g10
S'\xe7\xfc\xc7\x82xo\x0b\xc0'
tRp1271
ss(g2
g16
g3
g38
tp1272
(dp1273
I0
g8
(g10
S'qc\x12\xa9\x15\x9c\x11\xc0'
tRp1274
sI20
g8
(g10
S'\xebu\xb0A\xc6\xf8\x11\xc0'
tRp1275
sI-45
g8
(g10
S'\xda\xb6\x0c\x8b\xaa\xee\x11\xc0'
tRp1276
sI-20
g8
(g10
S'\x9a\xae\xeb1\xdc\x08\x12\xc0'
tRp1277
sI45
g8
(g10
S'\xb7\xa8\xfd\xfe\x15\xfd\x11\xc0'
tRp1278
ss(g16
g35
g16
g24
tp1279
(dp1280
I0
I0
sI20
I0
sI-45
I0
sI-20
I0
sI45
I0
ss(g4
g4
g4
g32
tp1281
(dp1282
I0
I0
sI20
I0
sI-45
I0
sI-20
I0
sI45
I0
ss(g2
g2
g35
g46
tp1283
(dp1284
I0
I0
sI20
I0
sI-45
I0
sI-20
I0
sI45
I0
ss(g2
g2
g4
g46
tp1285
(dp1286
I0
I0
sI20
I0
sI-45
I0
sI-20
I0
sI45
F0.1875
ss(g4
g35
g35
g17
tp1287
(dp1288
I0
I0
sI20
I0
sI-45
I0
sI-20
I0
sI45
I0
ss(g2
g2
g35
g32
tp1289
(dp1290
I0
F-0.80826189188327335
sI20
I0
sI-45
I0
sI-20
I0
sI45
F-0.51815806813171772
ss(g16
g2
g35
g32
tp1291
(dp1292
I0
I0
sI20
I0
sI-45
I0
sI-20
I0
sI45
I0
ss(g16
g4
g35
g24
tp1293
(dp1294
I0
I0
sI20
I0
sI-45
I0
sI-20
I0
sI45
I0
ss(g2
g16
g3
g46
tp1295
(dp1296
I0
F-0.42846159919337368
sI20
g8
(g10
S'\xe7\xe5\xd8"\xc2z\xad?'
tRp1297
sI-45
I0
sI-20
F1.1509998068825298
sI45
g8
(g10
S'A\x10\xcc\xc5\x90i\x05@'
tRp1298
ss(g16
g2
g35
g46
tp1299
(dp1300
I0
I0
sI20
I0
sI-45
I0
sI-20
I0
sI45
I0
ss(g2
g2
g3
g101
tp1301
(dp1302
I0
g8
(g10
S'1\x8f\x94\xc3N\x9b#@'
tRp1303
sI20
g8
(g10
S'Q\xad\xf0\xd6\xad\x08#@'
tRp1304
sI-45
g8
(g10
S'\xf4>\x07d\xe2\xfc @'
tRp1305
sI-20
g8
(g10
S'\xd3\t\xac\xf6\'\x0f"@'
tRp1306
sI45
g8
(g10
S'v\xe0\xc2\x9cWJ!@'
tRp1307
ss(g16
g3
g3
g32
tp1308
(dp1309
I0
I0
sI20
I0
sI-45
I0
sI-20
I0
sI45
I0
ss(g4
g16
g3
g24
tp1310
(dp1311
I0
I0
sI20
I0
sI-45
I0
sI-20
I0
sI45
I0
ss(g4
g35
g4
g101
tp1312
(dp1313
I0
I0
sI20
I0
sI-45
I0
sI-20
I0
sI45
I0
ss(g4
g2
g3
g46
tp1314
(dp1315
I0
I0
sI20
I0
sI-45
I0
sI-20
I0
sI45
I0
ss(g2
g2
g4
g38
tp1316
(dp1317
I0
g8
(g10
S'\x8b/\xea\xdf\xffd\x11\xc0'
tRp1318
sI20
g8
(g10
S'C\xe5n\xda\xec\x84\x11\xc0'
tRp1319
sI-45
g8
(g10
S'\x08\xddt\x9e\\\xd7\x11\xc0'
tRp1320
sI-20
g8
(g10
S')\xcd\xe9\xa8\xfd\x9a\x11\xc0'
tRp1321
sI45
g8
(g10
S'\xec\x03\x96\xd3,\xf6\x11\xc0'
tRp1322
ss(g2
g2
g2
g101
tp1323
(dp1324
I0
g8
(g10
S'\xba\x18\xec\x11\xb3\xa2\x06@'
tRp1325
sI20
g8
(g10
S'j/\xda\x03\xa7\x89\x06@'
tRp1326
sI-45
g8
(g10
S'\xae\xfbt\xb8\xcb\xb5\x12@'
tRp1327
sI-20
g8
(g10
S'vh\x11\x1a\xd5D\x15@'
tRp1328
sI45
g8
(g10
S'\xc7\x8f2\xbb2x\x11@'
tRp1329
ss(g4
g4
g2
g70
tp1330
(dp1331
I0
I0
sI20
I0
sI-45
I0
sI-20
I0
sI45
I0
ss(g2
g2
g35
g101
tp1332
(dp1333
I0
g8
(g10
S'\xb0#[\x89\x1f:\xaa\xbf'
tRp1334
sI20
g8
(g10
S'\xf6}\xe5\x1a\\\x91\xfa?'
tRp1335
sI-45
g8
(g10
S'p\r\x88\xa1|b\x01@'
tRp1336
sI-20
F0.066089880451756941
sI45
g8
(g10
S'\xf0w,I!\xd4\x07@'
tRp1337
ss(g2
g16
g4
g46
tp1338
(dp1339
I0
g8
(g10
S'\xf4\xa1\x99\x92\x9eQ\xe1?'
tRp1340
sI20
I0
sI-45
g8
(g10
S'\xb0\x1a\x9e}\xc4\xad\x07@'
tRp1341
sI-20
F0.17999999999999999
sI45
F-0.89203428650567218
ss(g4
g4
g4
g101
tp1342
(dp1343
I0
I0
sI20
I0
sI-45
I0
sI-20
I0
sI45
I0
ss(g4
g4
g2
g38
tp1344
(dp1345
I0
I0
sI20
I0
sI-45
I0
sI-20
I0
sI45
I0
ss(g4
g16
g3
g32
tp1346
(dp1347
I0
I0
sI20
I0
sI-45
I0
sI-20
I0
sI45
I0
ss(g4
g16
g16
g46
tp1348
(dp1349
I0
I0
sI20
I0
sI-45
I0
sI-20
I0
sI45
I0
ss(g2
g16
g4
g89
tp1350
(dp1351
I0
I0
sI20
I0
sI-45
I0
sI-20
F1.7897573292253293
sI45
F-0.20000000000000001
ss(g4
g35
g2
g89
tp1352
(dp1353
I0
I0
sI20
I0
sI-45
I0
sI-20
I0
sI45
I0
ss(g4
g16
g35
g89
tp1354
(dp1355
I0
I0
sI20
I0
sI-45
I0
sI-20
I0
sI45
I0
ss(g16
g2
g16
g17
tp1356
(dp1357
I0
I0
sI20
I0
sI-45
I0
sI-20
I0
sI45
I0
ss(g16
g2
g4
g38
tp1358
(dp1359
I0
I0
sI20
I0
sI-45
I0
sI-20
I0
sI45
F0.25
ss(g2
g35
g35
g32
tp1360
(dp1361
I0
I0
sI20
I0
sI-45
I0
sI-20
I0
sI45
I0
ss(g4
g35
g3
g5
tp1362
(dp1363
I0
I0
sI20
I0
sI-45
I0
sI-20
I0
sI45
I0
ss(g4
g4
g3
g101
tp1364
(dp1365
I0
I0
sI20
I0
sI-45
I0
sI-20
I0
sI45
I0
ss(g2
g16
g4
g24
tp1366
(dp1367
I0
g8
(g10
S'\x01\xacWDO\x80\x11\xc0'
tRp1368
sI20
g8
(g10
S'\x07mj\\N \x10\xc0'
tRp1369
sI-45
g8
(g10
S"\xa9'\xbb\xad?i\x11\xc0"
tRp1370
sI-20
g8
(g10
S':\xe3v\xae\x88l\x11\xc0'
tRp1371
sI45
g8
(g10
S'\xd9\x03\n0\xe0w\x11\xc0'
tRp1372
ss(g2
g16
g35
g32
tp1373
(dp1374
I0
I0
sI20
I0
sI-45
I0
sI-20
I0
sI45
I0
ss(g2
g2
g16
g38
tp1375
(dp1376
I0
g8
(g10
S'\xfc{\xa5V\x01h\x12\xc0'
tRp1377
sI20
g8
(g10
S'\xfbb\xe9\x8b\xaf\xd6\x11\xc0'
tRp1378
sI-45
g8
(g10
S'\xc1\xd5W\x87e\xad\x11\xc0'
tRp1379
sI-20
g8
(g10
S'\xee9\xa1\xd2\xde\xa1\x11\xc0'
tRp1380
sI45
g8
(g10
S'\xf5\xc4\x8c\xab}\xaf\x11\xc0'
tRp1381
ss(g16
g35
g16
g5
tp1382
(dp1383
I0
g8
(g10
S'.?\xc0\xae\xce\xbf\xe8\xbf'
tRp1384
sI20
F-0.52471629806720899
sI-45
g8
(g10
S'\x90\xb0\x96\x10\xca\x8a\xe9\xbf'
tRp1385
sI-20
g8
(g10
S'N\xaa5\xd8\x9b\xb7\xee\xbf'
tRp1386
sI45
g8
(g10
S'D\xaeu\xd7\x94\x8a\xe1\xbf'
tRp1387
ss(g4
g35
g2
g46
tp1388
(dp1389
I0
I0
sI20
I0
sI-45
I0
sI-20
I0
sI45
I0
ss(g4
g16
g4
g70
tp1390
(dp1391
I0
I0
sI20
I0
sI-45
I0
sI-20
I0
sI45
I0
ss(g16
g3
g35
g5
tp1392
(dp1393
I0
g8
(g10
S'\x16J|\x95\xffU\x0f\xc0'
tRp1394
sI20
g8
(g10
S'\xed\x06\xdbb\xe57\x0e\xc0'
tRp1395
sI-45
g8
(g10
S'\x18 \x0c\xaf+B\x0f\xc0'
tRp1396
sI-20
g8
(g10
S'\x19\x10\x96/\x95/\x0f\xc0'
tRp1397
sI45
g8
(g10
S'\xf2\xd5\xe9H\xae{\x0f\xc0'
tRp1398
ss(g4
g4
g16
g89
tp1399
(dp1400
I0
I0
sI20
I0
sI-45
I0
sI-20
I0
sI45
I0
ss(g4
g16
g4
g46
tp1401
(dp1402
I0
I0
sI20
I0
sI-45
I0
sI-20
I0
sI45
I0
ss(g2
g2
g2
g46
tp1403
(dp1404
I0
I0
sI20
I0
sI-45
g8
(g10
S'\n\xa8\x95\xad\xe3Z\xff?'
tRp1405
sI-20
I0
sI45
I0
ss(g16
g2
g16
g5
tp1406
(dp1407
I0
g8
(g10
S"\x9b\x11\xf0'\x0cp\x04\xc0"
tRp1408
sI20
g8
(g10
S'\xf2B\xea\xf5d~\x04\xc0'
tRp1409
sI-45
g8
(g10
S'K\xd7\xc9\x82\xd3P\x05\xc0'
tRp1410
sI-20
g8
(g10
S'\x17W\xeb\x06":\x05\xc0'
tRp1411
sI45
g8
(g10
S'9\xc6\xb4\xc95\x13\x05\xc0'
tRp1412
ss(g2
g4
g2
g101
tp1413
(dp1414
I0
g8
(g10
S'$\xdf\xd3\xbaTj\x11@'
tRp1415
sI20
F2.2110946511975946
sI-45
F1.2077458387868214
sI-20
g8
(g10
S'Hd\xf4\x98U\x0b\n@'
tRp1416
sI45
F1.1856
ss(g2
g2
g16
g24
tp1417
(dp1418
I0
g8
(g10
S':[?\xeb\xc9\xf4\x10\xc0'
tRp1419
sI20
g8
(g10
S'\xbd\xf4\x9a\xd4V\xdb\x10\xc0'
tRp1420
sI-45
g8
(g10
S'\x87\xbd\xcd\xd1f\x02\x11\xc0'
tRp1421
sI-20
g8
(g10
S'\xe2\xb3\xd5\xc4L\x10\x11\xc0'
tRp1422
sI45
g8
(g10
S'\t*8\x81{\xce\x10\xc0'
tRp1423
ss(g4
g16
g4
g24
tp1424
(dp1425
I0
I0
sI20
I0
sI-45
I0
sI-20
I0
sI45
I0
ss(g2
g35
g3
g5
tp1426
(dp1427
I0
g8
(g10
S'\x935\xba\x91\xa8\xc9\x12\xc0'
tRp1428
sI20
g8
(g10
S'\xb6#\xb7\x95\x07_\x11\xc0'
tRp1429
sI-45
g8
(g10
S'[@E\xf5g\x12\x12\xc0'
tRp1430
sI-20
g8
(g10
S'\xe2\x95\x9c=\xfb\xa8\x11\xc0'
tRp1431
sI45
g8
(g10
S'\x10a\xad\xfd\x95\xf0\x11\xc0'
tRp1432
ss(g2
g35
g3
g38
tp1433
(dp1434
I0
g8
(g10
S'z\xdaY\xa0R\x96\x12\xc0'
tRp1435
sI20
g8
(g10
S'\x10\xc2\xfc\xab\xe9"\x13\xc0'
tRp1436
sI-45
g8
(g10
S'\xb2Gm\x10-t\x12\xc0'
tRp1437
sI-20
g8
(g10
S'\x9d\r\xf0\t\r;\x13\xc0'
tRp1438
sI45
g8
(g10
S'\xdc\xfa\xa8\xe6\xb6\xe4\x11\xc0'
tRp1439
ss(g16
g2
g4
g17
tp1440
(dp1441
I0
I0
sI20
I0
sI-45
I0
sI-20
I0
sI45
I0
ss(g16
g35
g3
g32
tp1442
(dp1443
I0
I0
sI20
I0
sI-45
I0
sI-20
I0
sI45
I0
ss(g4
g3
g2
g89
tp1444
(dp1445
I0
I0
sI20
I0
sI-45
I0
sI-20
I0
sI45
I0
ss(g2
g35
g2
g38
tp1446
(dp1447
I0
g8
(g10
S'\x88R\xd6\xe1\x08\xaf\x13\xc0'
tRp1448
sI20
g8
(g10
S'\x9b\xb9\r9\x80\x1a\x13\xc0'
tRp1449
sI-45
g8
(g10
S'\x06\xa8\x00\xc2.\x19\x13\xc0'
tRp1450
sI-20
g8
(g10
S'\x15\xc1_va\xc8\x12\xc0'
tRp1451
sI45
g8
(g10
S'\xba\xd7\x99VM\xef\x13\xc0'
tRp1452
ss(g2
g4
g3
g17
tp1453
(dp1454
I0
g8
(g10
S'\xa7\xcbz\x9f\xe7\x0c\xab?'
tRp1455
sI20
g8
(g10
S'\x88/7\x15\r\n\xd5?'
tRp1456
sI-45
g8
(g10
S'~\xebk\xe1\x8c\xfb\x0c@'
tRp1457
sI-20
g8
(g10
S'l\xbf\xa5\x00<C\xba\xbf'
tRp1458
sI45
g8
(g10
S'\xc4\xcd04\xa9(\xf3?'
tRp1459
ss(g16
g4
g3
g5
tp1460
(dp1461
I0
g8
(g10
S'\x9a\xa5\x13\xbc\xfdf\x04\xc0'
tRp1462
sI20
g8
(g10
S'\x8f\x1c\xd8\r[\xad\x07\xc0'
tRp1463
sI-45
g8
(g10
S'\xd6UN\x0f\x920\x07\xc0'
tRp1464
sI-20
g8
(g10
S't\xfc\xf2\xd5{\xdb\x07\xc0'
tRp1465
sI45
g8
(g10
S'\xdd\x8b[\xb5\xc2\xe7\x07\xc0'
tRp1466
ss(g4
g4
g2
g101
tp1467
(dp1468
I0
I0
sI20
I0
sI-45
I0
sI-20
I0
sI45
I0
ss(g2
g4
g3
g24
tp1469
(dp1470
I0
g8
(g10
S'N\xe2])\x99Z\x11\xc0'
tRp1471
sI20
g8
(g10
S'\xb8\x8eR\xf9\xdc\x9c\x11\xc0'
tRp1472
sI-45
g8
(g10
S':\xa9n\xec\xc7\x0c\x0f\xc0'
tRp1473
sI-20
g8
(g10
S'I"[!P\x97\x11\xc0'
tRp1474
sI45
g8
(g10
S'\xef\xdb\xb3O\xc8\xbb\x10\xc0'
tRp1475
ss(g4
g3
g4
g38
tp1476
(dp1477
I0
I0
sI20
I0
sI-45
I0
sI-20
I0
sI45
I0
ss(g16
g16
g2
g101
tp1478
(dp1479
I0
I0
sI20
F1
sI-45
I0
sI-20
I0
sI45
I0
ss(g4
g2
g4
g5
tp1480
(dp1481
I0
I0
sI20
I0
sI-45
I0
sI-20
I0
sI45
I0
ss(g4
g3
g4
g5
tp1482
(dp1483
I0
I0
sI20
I0
sI-45
I0
sI-20
I0
sI45
I0
ss(g16
g2
g4
g24
tp1484
(dp1485
I0
I0
sI20
I0
sI-45
I0
sI-20
I0
sI45
I0
ss(g16
g4
g2
g32
tp1486
(dp1487
I0
I0
sI20
I0
sI-45
I0
sI-20
I0
sI45
I0
ss(g4
g3
g35
g89
tp1488
(dp1489
I0
I0
sI20
I0
sI-45
I0
sI-20
I0
sI45
I0
ss(g16
g2
g3
g38
tp1490
(dp1491
I0
g8
(g10
S'N\xd8\xa9L+H\x0b\xc0'
tRp1492
sI20
g8
(g10
S'\xabv\x81\xf9\xf9M\x0b\xc0'
tRp1493
sI-45
g8
(g10
S"'\\\xe6:\xdb\xe9\n\xc0"
tRp1494
sI-20
g8
(g10
S'\xf8\xfc\x8b\xbb\xdc\t\x0c\xc0'
tRp1495
sI45
g8
(g10
S'\xef%\xae(\xec\xff\x08\xc0'
tRp1496
ss(g2
g3
g16
g5
tp1497
(dp1498
I0
g8
(g10
S'\x15\xee\xe2h\xb8\xa2\x11\xc0'
tRp1499
sI20
g8
(g10
S'^\xd1<\x94\x84H\x11\xc0'
tRp1500
sI-45
g8
(g10
S'\xfe\xa3\x1d\xda\x19U\x11\xc0'
tRp1501
sI-20
g8
(g10
S'J\xf7\xfa\xf2\x0e\x82\x11\xc0'
tRp1502
sI45
g8
(g10
S'\xb5r\x9f\xecsY\x11\xc0'
tRp1503
ss(g2
g4
g3
g5
tp1504
(dp1505
I0
g8
(g10
S'*\xcc\x8f\xe5\xd7\xf4\x11\xc0'
tRp1506
sI20
g8
(g10
S'#M\x0c\xe4\xd7"\x12\xc0'
tRp1507
sI-45
g8
(g10
S'\x91\x06\x8f\xd2@\xf5\x11\xc0'
tRp1508
sI-20
g8
(g10
S'\xd43\xec%7\xe4\x11\xc0'
tRp1509
sI45
g8
(g10
S'&4lj\xcd\x06\x12\xc0'
tRp1510
ss(g2
g4
g16
g101
tp1511
(dp1512
I0
g8
(g10
S'\x8aK\x88\xd2bN\x07@'
tRp1513
sI20
I0
sI-45
F0
sI-20
I0
sI45
g8
(g10
S'\x90\xb6O\xcc\xc3h\xd1?'
tRp1514
ss(g16
g4
g3
g17
tp1515
(dp1516
I0
I0
sI20
I0
sI-45
I0
sI-20
I0
sI45
F-0.19359999999999999
ss(g16
g16
g3
g101
tp1517
(dp1518
I0
I0
sI20
I0
sI-45
I0
sI-20
I0
sI45
I0
ss(g16
g3
g4
g32
tp1519
(dp1520
I0
I0
sI20
I0
sI-45
I0
sI-20
I0
sI45
I0
ss(g16
g3
g4
g5
tp1521
(dp1522
I0
g8
(g10
S'\x03\x08y\x04C\xb7\x02\xc0'
tRp1523
sI20
g8
(g10
S'+\x15\xeb\xe9E.\x00\xc0'
tRp1524
sI-45
g8
(g10
S'p\xa5\xcf\xf2p\x12\x02\xc0'
tRp1525
sI-20
g8
(g10
S'\xa3\x0b\xd9\x9eh\xa7\x03\xc0'
tRp1526
sI45
g8
(g10
S'\xeaM\xa81\x9f\xe3\x03\xc0'
tRp1527
ss(g2
g16
g3
g17
tp1528
(dp1529
I0
g8
(g10
S'\xb2\xa2H\xe6\xf2\x99\xe3\xbf'
tRp1530
sI20
I0
sI-45
g8
(g10
S'\xca7\xdbC\xff\xb9\xd5?'
tRp1531
sI-20
I0
sI45
I0
ss(g4
g4
g3
g89
tp1532
(dp1533
I0
I0
sI20
I0
sI-45
I0
sI-20
I0
sI45
I0
ss(g16
g35
g4
g70
tp1534
(dp1535
I0
I0
sI20
I0
sI-45
I0
sI-20
I0
sI45
I0
ss(g4
g35
g4
g89
tp1536
(dp1537
I0
I0
sI20
I0
sI-45
I0
sI-20
I0
sI45
I0
ss(g16
g16
g3
g32
tp1538
(dp1539
I0
I0
sI20
I0
sI-45
I0
sI-20
I0
sI45
I0
ss(g2
g16
g3
g24
tp1540
(dp1541
I0
g8
(g10
S'\x9eW\x7f4 \xd2\x10\xc0'
tRp1542
sI20
g8
(g10
S'\xc4AF\x8a8t\x11\xc0'
tRp1543
sI-45
g8
(g10
S'\xe2-w3R\xa6\x10\xc0'
tRp1544
sI-20
g8
(g10
S'\x7fK\xb0\x057\xb9\x10\xc0'
tRp1545
sI45
g8
(g10
S'\xef!F\xd19\xba\x10\xc0'
tRp1546
ss(g4
g16
g4
g5
tp1547
(dp1548
I0
I0
sI20
I0
sI-45
I0
sI-20
I0
sI45
I0
ss(g2
g4
g16
g32
tp1549
(dp1550
I0
I0
sI20
I0
sI-45
I0
sI-20
I0
sI45
I0
ss(g16
g2
g3
g24
tp1551
(dp1552
I0
g8
(g10
S'Am\xf8\x0f\x02$\x06\xc0'
tRp1553
sI20
g8
(g10
S'\x14\x16\x1f\xfc\xdf\xbb\t\xc0'
tRp1554
sI-45
g8
(g10
S'\x7f\x17I\xb8\x11+\t\xc0'
tRp1555
sI-20
g8
(g10
S'y\xc3\x89M9<\t\xc0'
tRp1556
sI45
g8
(g10
S'\xc9\x15\xfa\xfe\xae\xe9\x08\xc0'
tRp1557
ss(g16
g2
g2
g46
tp1558
(dp1559
I0
I0
sI20
I0
sI-45
I0
sI-20
I0
sI45
I0
ss(g4
g2
g3
g24
tp1560
(dp1561
I0
I0
sI20
I0
sI-45
I0
sI-20
I0
sI45
I0
ss(g16
g2
g2
g32
tp1562
(dp1563
I0
I0
sI20
I0
sI-45
I0
sI-20
I0
sI45
I0
ss(g2
g16
g2
g17
tp1564
(dp1565
I0
I0
sI20
I0
sI-45
I0
sI-20
I0
sI45
I0
ss(g2
g3
g3
g24
tp1566
(dp1567
I0
g8
(g10
S'\x1fT:\xc5\xd3\x16\x13\xc0'
tRp1568
sI20
g8
(g10
S's8\xea\xbe\x1a\x8e\x13\xc0'
tRp1569
sI-45
g8
(g10
S'\xc8\xba\xc1;\x1d\xb6\x12\xc0'
tRp1570
sI-20
g8
(g10
S'\xf1\xa7m\xbe\xc8t\x13\xc0'
tRp1571
sI45
g8
(g10
S'\xce\x90\xf4\x87\xa1\x05\x0e\xc0'
tRp1572
ss(g16
g35
g16
g38
tp1573
(dp1574
I0
I0
sI20
I0
sI-45
I0
sI-20
I0
sI45
I0
ss(g4
g16
g16
g70
tp1575
(dp1576
I0
I0
sI20
I0
sI-45
I0
sI-20
I0
sI45
I0
ss(g2
g3
g3
g17
tp1577
(dp1578
I0
g8
(g10
S'\xbd\x84 \x1d\xee7\x11@'
tRp1579
sI20
g8
(g10
S'\x06\x02\x1c\xe3n?\xf6?'
tRp1580
sI-45
g8
(g10
S'\xa8<\x00\xb8\x94\xe3\xe9?'
tRp1581
sI-20
g8
(g10
S'\x05\x95yC\xb8\x00\xf9?'
tRp1582
sI45
g8
(g10
S'\x80\xc0\xa5\x1b\xfc\xef\x01\xc0'
tRp1583
ss(g16
g16
g35
g5
tp1584
(dp1585
I0
I0
sI20
I0
sI-45
I0
sI-20
I0
sI45
I0
ss(g16
g3
g4
g17
tp1586
(dp1587
I0
I0
sI20
I0
sI-45
I0
sI-20
I0
sI45
I0
ss(g2
g2
g35
g89
tp1588
(dp1589
I0
F-0.28453501487032751
sI20
F-0.40000000000000002
sI-45
g8
(g10
S'i7I\x11E\xb6\xe3\xbf'
tRp1590
sI-20
g8
(g10
S'L\xe2%\xec,\xf2\xf6\xbf'
tRp1591
sI45
g8
(g10
S'\xbb\x8d\xe7\xb6|\x89\xd9\xbf'
tRp1592
ss(g4
g3
g4
g101
tp1593
(dp1594
I0
I0
sI20
I0
sI-45
I0
sI-20
I0
sI45
I0
ss(g16
g2
g3
g46
tp1595
(dp1596
I0
I0
sI20
g8
(g10
S'\x93\xa9\x1c;\x04\xc8\xc1\xbf'
tRp1597
sI-45
I0
sI-20
I0
sI45
F-1.3606072663961379
ss(g16
g4
g3
g32
tp1598
(dp1599
I0
I0
sI20
I0
sI-45
I0
sI-20
I0
sI45
F0.25
ss(g2
g16
g4
g38
tp1600
(dp1601
I0
g8
(g10
S'\x1c\xc2\xda{j~\x11\xc0'
tRp1602
sI20
g8
(g10
S'\x12=x\xb3\x9e\xbf\x11\xc0'
tRp1603
sI-45
g8
(g10
S'8\xc6\xc2a\xbc\x0f\x12\xc0'
tRp1604
sI-20
g8
(g10
S'/E\xab]\x1fX\x12\xc0'
tRp1605
sI45
g8
(g10
S')\xc3\x94h\xa8\xb9\x10\xc0'
tRp1606
ss(g2
g3
g35
g5
tp1607
(dp1608
I0
g8
(g10
S'\xcc\xae\x03\xf6_\xf9\x11\xc0'
tRp1609
sI20
g8
(g10
S'\x1au\x86N\xdf\xf5\x11\xc0'
tRp1610
sI-45
g8
(g10
S'&+\xdbA\x90\x81\x12\xc0'
tRp1611
sI-20
g8
(g10
S'\xb6\x86\x1f\x1bB\x06\x12\xc0'
tRp1612
sI45
g8
(g10
S'O\xb7\x90\xdb]\xf5\x11\xc0'
tRp1613
ss(g4
g2
g2
g5
tp1614
(dp1615
I0
I0
sI20
I0
sI-45
I0
sI-20
I0
sI45
I0
ss(g2
g3
g35
g38
tp1616
(dp1617
I0
g8
(g10
S'\x90\x07\xd5;`[\x12\xc0'
tRp1618
sI20
g8
(g10
S'\x15\xf4\xb8\xe5\x14\xe9\x11\xc0'
tRp1619
sI-45
g8
(g10
S'r\x10\xafC\xfaB\x12\xc0'
tRp1620
sI-20
g8
(g10
S'\x1f\x1b\xae\x07(\xd8\x12\xc0'
tRp1621
sI45
g8
(g10
S'h\n\xe7\xd8m\xce\x12\xc0'
tRp1622
ss(g16
g4
g2
g17
tp1623
(dp1624
I0
I0
sI20
I0
sI-45
I0
sI-20
I0
sI45
F0.4375
ss(g2
g4
g4
g32
tp1625
(dp1626
I0
F0.55000000000000004
sI20
I0
sI-45
I0
sI-20
I0
sI45
I0
ss(g2
g2
g2
g70
tp1627
(dp1628
I0
g8
(g10
S'\x18\xaf\xd5&\xfd\xa9\x11\xc0'
tRp1629
sI20
g8
(g10
S'\xeb\x87.\xb9\xa7\x8a\x11\xc0'
tRp1630
sI-45
g8
(g10
S'`\xf7\x18\x14F\x8d\x11\xc0'
tRp1631
sI-20
g8
(g10
S'\xf2\x0f\x040\xe4\xc6\x11\xc0'
tRp1632
sI45
g8
(g10
S'\x8ck\xaae\xb7S\x0e\xc0'
tRp1633
ss(g2
g16
g35
g5
tp1634
(dp1635
I0
g8
(g10
S'J\xaa\xd7\x85\x83\xd6\x0f\xc0'
tRp1636
sI20
g8
(g10
S'C\x13\x8d\xd9-\xd1\x0f\xc0'
tRp1637
sI-45
g8
(g10
S'\xf0%\x15\xb7\x95\xc7\x0f\xc0'
tRp1638
sI-20
g8
(g10
S'\x16)\x0b\xd4r\x89\x0f\xc0'
tRp1639
sI45
g8
(g10
S'\x1aw\x94\xb7\xa0N\x0f\xc0'
tRp1640
ss(g16
g2
g3
g89
tp1641
(dp1642
I0
I0
sI20
g8
(g10
S'\xa7Eu^\xc2|\xe6\xbf'
tRp1643
sI-45
I0
sI-20
F-0.20000000000000001
sI45
F-0.20000000000000001
ss(g16
g3
g35
g101
tp1644
(dp1645
I0
I0
sI20
F0.27307383232087235
sI-45
I0
sI-20
I0
sI45
F0.072462795840340766
ss(g2
g3
g35
g24
tp1646
(dp1647
I0
g8
(g10
S'z\xbc\xbeLh[\x12\xc0'
tRp1648
sI20
g8
(g10
S'K\x91\x97\x8d\x87\x86\x12\xc0'
tRp1649
sI-45
g8
(g10
S'\x93k\x884\x8a(\x13\xc0'
tRp1650
sI-20
g8
(g10
S'\xa8P\x82\x12\xcb\x86\x12\xc0'
tRp1651
sI45
g8
(g10
S'\xc9\x84\x15\x9bE\x9a\x11\xc0'
tRp1652
ss(g4
g3
g35
g101
tp1653
(dp1654
I0
I0
sI20
I0
sI-45
I0
sI-20
I0
sI45
I0
ss(g4
g2
g35
g24
tp1655
(dp1656
I0
I0
sI20
I0
sI-45
I0
sI-20
I0
sI45
I0
ss(g2
g3
g35
g17
tp1657
(dp1658
I0
I0
sI20
I0
sI-45
I0
sI-20
g8
(g10
S'\xf4\x13\x19,\xa26\xf2?'
tRp1659
sI45
I0
ss(g16
g35
g2
g101
tp1660
(dp1661
I0
F0
sI20
I0
sI-45
I0
sI-20
I0
sI45
F0
ss(g16
g35
g35
g70
tp1662
(dp1663
I0
I0
sI20
I0
sI-45
I0
sI-20
I0
sI45
I0
ss(g16
g3
g2
g70
tp1664
(dp1665
I0
g8
(g10
S'j\xed\r\x92\xe8\xe8\x08\xc0'
tRp1666
sI20
g8
(g10
S'g\xd0\x94#\x8f0\t\xc0'
tRp1667
sI-45
g8
(g10
S'\x1c\x13\x06"\x0c}\t\xc0'
tRp1668
sI-20
g8
(g10
S'\x9d&=po\xb7\x07\xc0'
tRp1669
sI45
g8
(g10
S'\xee\xc8\xf2\x1f\xb6y\x05\xc0'
tRp1670
ss(g2
g3
g2
g38
tp1671
(dp1672
I0
g8
(g10
S'\xffn$r\x84\xc7\x12\xc0'
tRp1673
sI20
g8
(g10
S'3C\xcc6b\xba\x12\xc0'
tRp1674
sI-45
g8
(g10
S'\x9f\xc0\xe3\x85Y8\x12\xc0'
tRp1675
sI-20
g8
(g10
S'\xa4\xaf\xd0\x06A\xa9\x12\xc0'
tRp1676
sI45
g8
(g10
S'\x8b\xa1O\x18x\xb5\x12\xc0'
tRp1677
ss(g4
g3
g16
g17
tp1678
(dp1679
I0
I0
sI20
I0
sI-45
I0
sI-20
I0
sI45
I0
ss(g16
g35
g2
g89
tp1680
(dp1681
I0
I0
sI20
I0
sI-45
I0
sI-20
I0
sI45
I0
ss(g16
g35
g2
g5
tp1682
(dp1683
I0
I0
sI20
I0
sI-45
I0
sI-20
I0
sI45
F-1.1941347960758022
ss(g16
g3
g4
g38
tp1684
(dp1685
I0
g8
(g10
S'B\x9a:\xdc\xf1\x15\x08\xc0'
tRp1686
sI20
g8
(g10
S'\x05r\x9c\xabX<\x02\xc0'
tRp1687
sI-45
g8
(g10
S'\x11xL\xa6\xbe\xfa\x07\xc0'
tRp1688
sI-20
g8
(g10
S'\x11[\xee\xee\xc1\x9c\t\xc0'
tRp1689
sI45
g8
(g10
S'e\xa3[\x07`\x11\x05\xc0'
tRp1690
ss(g2
g3
g3
g38
tp1691
(dp1692
I0
g8
(g10
S'\xc1\x8c\xa45\x8b\xea\x13\xc0'
tRp1693
sI20
g8
(g10
S'b\xfa\x0f\xa0n\xf7\x13\xc0'
tRp1694
sI-45
g8
(g10
S'$\xe3\xc0\xc2H\xe5\x13\xc0'
tRp1695
sI-20
g8
(g10
S'2\x93F\x12o\xf3\x12\xc0'
tRp1696
sI45
g8
(g10
S'^\xf0\x80\xbf\xe9\xdb\x13\xc0'
tRp1697
ss(g4
g16
g4
g38
tp1698
(dp1699
I0
I0
sI20
I0
sI-45
I0
sI-20
I0
sI45
I0
ss(g2
g4
g4
g101
tp1700
(dp1701
I0
g8
(g10
S'\xce\xa5\xff\x96\xe6L\t@'
tRp1702
sI20
I0
sI-45
I0
sI-20
I0
sI45
g8
(g10
S'\xf2\xf5Q\xdbF\x0f\xf0?'
tRp1703
ss(g16
g35
g3
g46
tp1704
(dp1705
I0
I0
sI20
I0
sI-45
I0
sI-20
I0
sI45
I0
ss(g16
g2
g16
g101
tp1706
(dp1707
I0
I0
sI20
I0
sI-45
I0
sI-20
F0
sI45
F0
ss(g4
g2
g2
g101
tp1708
(dp1709
I0
I0
sI20
I0
sI-45
I0
sI-20
I0
sI45
I0
ss(g16
g35
g4
g24
tp1710
(dp1711
I0
I0
sI20
I0
sI-45
I0
sI-20
I0
sI45
I0
ss(g4
g2
g4
g38
tp1712
(dp1713
I0
I0
sI20
I0
sI-45
I0
sI-20
I0
sI45
I0
ss(g16
g2
g16
g32
tp1714
(dp1715
I0
I0
sI20
I0
sI-45
F-0.140687631733864
sI-20
I0
sI45
F0
ss(g4
g3
g4
g70
tp1716
(dp1717
I0
I0
sI20
I0
sI-45
I0
sI-20
I0
sI45
I0
ss(g16
g2
g16
g89
tp1718
(dp1719
I0
I0
sI20
I0
sI-45
I0
sI-20
I0
sI45
I0
ss(g16
g3
g35
g46
tp1720
(dp1721
I0
I0
sI20
I0
sI-45
I0
sI-20
I0
sI45
g8
(g10
S'\xb2\xd2|\x00\xf4\xda\xdc?'
tRp1722
ss(g2
g3
g16
g89
tp1723
(dp1724
I0
I0
sI20
g8
(g10
S'b@\xd6\xf4\x83\xee\xe8?'
tRp1725
sI-45
I0
sI-20
I0
sI45
g8
(g10
S'weV\x84\x91\xfe\xe2\xbf'
tRp1726
ss(g4
g3
g4
g89
tp1727
(dp1728
I0
I0
sI20
I0
sI-45
I0
sI-20
I0
sI45
I0
ss(g4
g3
g3
g17
tp1729
(dp1730
I0
I0
sI20
I0
sI-45
I0
sI-20
I0
sI45
I0
ss(g16
g35
g3
g89
tp1731
(dp1732
I0
I0
sI20
I0
sI-45
I0
sI-20
I0
sI45
F-0.16854654658689169
ss(g2
g16
g35
g70
tp1733
(dp1734
I0
g8
(g10
S'\xe6\x06\x85\x1c\x05\xea\xf1\xbf'
tRp1735
sI20
g8
(g10
S'\xa6\x08\xb0\xc4}l\x00\xc0'
tRp1736
sI-45
g8
(g10
S'_\xb6R\xc8I(\xf2\xbf'
tRp1737
sI-20
g8
(g10
S'+\xa0\xc8,\\\x8d\xfb\xbf'
tRp1738
sI45
g8
(g10
S':\x8cT\\\x00;\xf2\xbf'
tRp1739
ss(g4
g3
g35
g5
tp1740
(dp1741
I0
I0
sI20
I0
sI-45
I0
sI-20
I0
sI45
I0
ss(g4
g3
g35
g24
tp1742
(dp1743
I0
I0
sI20
I0
sI-45
I0
sI-20
I0
sI45
I0
ss(g16
g4
g4
g24
tp1744
(dp1745
I0
g8
(g10
S'r\x81\xf6X\xd6L\xf7\xbf'
tRp1746
sI20
g8
(g10
S'\xf1x\xad\xe9\xa5{\xf6\xbf'
tRp1747
sI-45
g8
(g10
S'\x99\xb8\x14n\x85\xb4\xfb\xbf'
tRp1748
sI-20
g8
(g10
S'FN\xe3)~\xdf\xf6\xbf'
tRp1749
sI45
g8
(g10
S'\xe6\xa0O/\rX\xfe\xbf'
tRp1750
ss(g16
g35
g4
g46
tp1751
(dp1752
I0
I0
sI20
I0
sI-45
I0
sI-20
I0
sI45
I0
ss(g4
g35
g3
g46
tp1753
(dp1754
I0
I0
sI20
I0
sI-45
I0
sI-20
I0
sI45
I0
ss(g16
g3
g16
g24
tp1755
(dp1756
I0
g8
(g10
S'\xb6\x04\r\xb6\xfbs\n\xc0'
tRp1757
sI20
g8
(g10
S'\xb7\x12\xa0,bM\x0b\xc0'
tRp1758
sI-45
g8
(g10
S'8<\xa4\x99tN\x0b\xc0'
tRp1759
sI-20
g8
(g10
S'\x9e\x05JROg\x0b\xc0'
tRp1760
sI45
g8
(g10
S'\x1d\x80\x92b\xae]\x0b\xc0'
tRp1761
ss(g2
g35
g2
g46
tp1762
(dp1763
I0
I0
sI20
I0
sI-45
g8
(g10
S'!\xd6\xd9\xb7C\xb9\xe4\xbf'
tRp1764
sI-20
I0
sI45
g8
(g10
S'\xd8m\xca\x86A/\xed?'
tRp1765
ss(g16
g3
g2
g89
tp1766
(dp1767
I0
g8
(g10
S'\xee:\x11\x10B\xb4\xe9\xbf'
tRp1768
sI20
F-0.39200000000000007
sI-45
F-0.20000000000000001
sI-20
g8
(g10
S'\xa9\xcazS\xf3=\xe7\xbf'
tRp1769
sI45
F-0.39200000000000007
ss(g16
g3
g16
g17
tp1770
(dp1771
I0
I0
sI20
I0
sI-45
I0
sI-20
I0
sI45
I0
ss(g16
g3
g3
g46
tp1772
(dp1773
I0
I0
sI20
I0
sI-45
I0
sI-20
I0
sI45
I0
ss(g2
g3
g16
g46
tp1774
(dp1775
I0
I0
sI20
g8
(g10
S'\xcd\x84y\xae\x80\xda\xb6?'
tRp1776
sI-45
g8
(g10
S'\xbc=\xceg\xf8_\n@'
tRp1777
sI-20
g8
(g10
S'/\x95\x18\xe6U\\\x13@'
tRp1778
sI45
F0.1125
ss(g16
g2
g35
g17
tp1779
(dp1780
I0
I0
sI20
I0
sI-45
I0
sI-20
I0
sI45
I0
ss(g4
g4
g2
g17
tp1781
(dp1782
I0
I0
sI20
I0
sI-45
I0
sI-20
I0
sI45
I0
ss(g4
g2
g4
g46
tp1783
(dp1784
I0
I0
sI20
I0
sI-45
I0
sI-20
I0
sI45
I0
ss(g2
g16
g2
g32
tp1785
(dp1786
I0
I0
sI20
I0
sI-45
I0
sI-20
I0
sI45
I0
ss(g2
g35
g16
g46
tp1787
(dp1788
I0
I0
sI20
I0
sI-45
I0
sI-20
I0
sI45
I0
ss(g2
g2
g3
g5
tp1789
(dp1790
I0
g8
(g10
S'\xa9.\xc9?\xf9\xe9\x11\xc0'
tRp1791
sI20
g8
(g10
S'\xda\xdb\xaa\x91\xc8S\x12\xc0'
tRp1792
sI-45
g8
(g10
S'\xf0\xcd)\x86q3\x10\xc0'
tRp1793
sI-20
g8
(g10
S'\xc4\xe2\x12P\xabE\x13\xc0'
tRp1794
sI45
g8
(g10
S'\xfe3\xc1\x0ce\xe5\x12\xc0'
tRp1795
ss(g2
g16
g4
g5
tp1796
(dp1797
I0
g8
(g10
S'\xe9`1\x7fr5\x10\xc0'
tRp1798
sI20
g8
(g10
S'\xbaag\xd32\x02\x10\xc0'
tRp1799
sI-45
g8
(g10
S'-4\x80\xef\xc4\x1e\x10\xc0'
tRp1800
sI-20
g8
(g10
S'\xb7\x10C\xd8\xc1\r\x10\xc0'
tRp1801
sI45
g8
(g10
S'\x1c\x11\x0e\xd5\x1f\xa9\x0c\xc0'
tRp1802
ss(g16
g4
g35
g89
tp1803
(dp1804
I0
I0
sI20
I0
sI-45
I0
sI-20
I0
sI45
I0
ss(g2
g16
g35
g89
tp1805
(dp1806
I0
I0
sI20
I0
sI-45
I0
sI-20
I0
sI45
I0
ss(g16
g4
g2
g101
tp1807
(dp1808
I0
I0
sI20
I0
sI-45
I0
sI-20
I0
sI45
I0
ss(g16
g3
g3
g89
tp1809
(dp1810
I0
I0
sI20
I0
sI-45
I0
sI-20
I0
sI45
I0
ss(g4
g3
g3
g46
tp1811
(dp1812
I0
I0
sI20
I0
sI-45
I0
sI-20
I0
sI45
I0
ss(g2
g2
g3
g24
tp1813
(dp1814
I0
g8
(g10
S'\xcd`\x81_FK\x12\xc0'
tRp1815
sI20
g8
(g10
S'\x96\xb2\xe3?\x97R\x12\xc0'
tRp1816
sI-45
g8
(g10
S'\x1e\xb3\x92\x12\x13\xb8\x12\xc0'
tRp1817
sI-20
g8
(g10
S'^MH\xb7nV\x12\xc0'
tRp1818
sI45
g8
(g10
S'\xc9\xff\x84O\xd2T\x12\xc0'
tRp1819
ss(g4
g2
g35
g89
tp1820
(dp1821
I0
I0
sI20
I0
sI-45
I0
sI-20
I0
sI45
I0
ss(g16
g3
g16
g46
tp1822
(dp1823
I0
I0
sI20
I0
sI-45
I0
sI-20
I0
sI45
I0
ss(g4
g4
g16
g24
tp1824
(dp1825
I0
I0
sI20
I0
sI-45
I0
sI-20
I0
sI45
I0
ss(g2
g16
g3
g32
tp1826
(dp1827
I0
I0
sI20
I0
sI-45
I0
sI-20
I0
sI45
F-0.91644897815970805
ss(g2
g3
g16
g70
tp1828
(dp1829
I0
g8
(g10
S'M`\rF\xccK\x10\xc0'
tRp1830
sI20
g8
(g10
S"T\xccj\xc2'\x97\x10\xc0"
tRp1831
sI-45
g8
(g10
S'\x80\xdf;\xcd\xf0A\x10\xc0'
tRp1832
sI-20
g8
(g10
S'\xa2\xf3+<zC\x10\xc0'
tRp1833
sI45
g8
(g10
S'\xe7\xa3\xdf\x9c\x8c\x1f\x10\xc0'
tRp1834
ss(g16
g4
g35
g38
tp1835
(dp1836
I0
I0
sI20
I0
sI-45
I0
sI-20
I0
sI45
I0
ss(g2
g35
g2
g70
tp1837
(dp1838
I0
g8
(g10
S'eV\xab\xc0\x012\x0c\xc0'
tRp1839
sI20
g8
(g10
S'\x1b \xc8Z{\xd1\n\xc0'
tRp1840
sI-45
g8
(g10
S'\xd4_L\xc7\xf8{\x0b\xc0'
tRp1841
sI-20
g8
(g10
S'R&U0\xea1\x0b\xc0'
tRp1842
sI45
g8
(g10
S'\x1eDQohg\x0e\xc0'
tRp1843
ss(g2
g3
g4
g89
tp1844
(dp1845
I0
g8
(g10
S'\x9e\xdf\xc7\xeaO\x15\xff\xbf'
tRp1846
sI20
g8
(g10
S'\x8e\xd4\xe9.\xf6.\x01\xc0'
tRp1847
sI-45
g8
(g10
S'\xa7\x86\x8anJ;\x02\xc0'
tRp1848
sI-20
g8
(g10
S'\x17$\xa0\x08W\x93\x06\xc0'
tRp1849
sI45
g8
(g10
S'\x8f\n\xa8K|\x10\r@'
tRp1850
ss(g2
g35
g16
g89
tp1851
(dp1852
I0
I0
sI20
I0
sI-45
I0
sI-20
I0
sI45
I0
ss(g4
g16
g3
g89
tp1853
(dp1854
I0
I0
sI20
I0
sI-45
I0
sI-20
I0
sI45
I0
ss(g4
g16
g4
g101
tp1855
(dp1856
I0
I0
sI20
I0
sI-45
I0
sI-20
I0
sI45
I0
ss(g16
g4
g35
g46
tp1857
(dp1858
I0
I0
sI20
I0
sI-45
I0
sI-20
I0
sI45
I0
ss(g2
g16
g3
g101
tp1859
(dp1860
I0
I0
sI20
g8
(g10
S'\x19\x04i\x14\xc0\xb0\x15@'
tRp1861
sI-45
g8
(g10
S'\xeb\xd5\xce\x1e"\xbd\x03@'
tRp1862
sI-20
g8
(g10
S'\x19\xdf\x07)\xbb\xe6\x10@'
tRp1863
sI45
F-1.2385906339907828
ss(g16
g3
g4
g70
tp1864
(dp1865
I0
g8
(g10
S'kR\xfcpJ\xa5\x03\xc0'
tRp1866
sI20
g8
(g10
S'r(/\xf8J^\x03\xc0'
tRp1867
sI-45
g8
(g10
S'\x06\xca\x11?B6\x03\xc0'
tRp1868
sI-20
g8
(g10
S'\x80\x98\x01|\x98\xae\x04\xc0'
tRp1869
sI45
g8
(g10
S'b\xd3\xe9\xc8S\x01\x01\xc0'
tRp1870
ss(g16
g16
g35
g101
tp1871
(dp1872
I0
I0
sI20
I0
sI-45
I0
sI-20
I0
sI45
F-0.20000000000000001
ss(g4
g4
g35
g38
tp1873
(dp1874
I0
I0
sI20
I0
sI-45
I0
sI-20
I0
sI45
I0
ss(g4
g2
g35
g46
tp1875
(dp1876
I0
I0
sI20
I0
sI-45
I0
sI-20
I0
sI45
I0
ss(g16
g2
g3
g5
tp1877
(dp1878
I0
g8
(g10
S'\xcb\x97\x8b\xfb}\xb5\n\xc0'
tRp1879
sI20
g8
(g10
S'J\rZ\x9czp\n\xc0'
tRp1880
sI-45
g8
(g10
S'\xeb2\x14\x97*\xed\n\xc0'
tRp1881
sI-20
g8
(g10
S'\xbaL\x9b\x18U\xd3\t\xc0'
tRp1882
sI45
g8
(g10
S'%\x1d9\xa0\x13b\n\xc0'
tRp1883
ss(g4
g3
g2
g101
tp1884
(dp1885
I0
I0
sI20
I0
sI-45
I0
sI-20
I0
sI45
I0
ss(g2
g2
g16
g89
tp1886
(dp1887
I0
I0
sI20
I0
sI-45
I0
sI-20
I0
sI45
I0
ss(g2
g16
g16
g5
tp1888
(dp1889
I0
g8
(g10
S'\xf0\xd5\xd9\xfb\xd4o\x10\xc0'
tRp1890
sI20
g8
(g10
S'\x81\xbd\x8e6\x85a\x10\xc0'
tRp1891
sI-45
g8
(g10
S'\xd0\xb6B)\xb0H\x10\xc0'
tRp1892
sI-20
g8
(g10
S'_\xce\xb24_\x9c\x10\xc0'
tRp1893
sI45
g8
(g10
S'\xb0H\x1f\xbe`Z\x10\xc0'
tRp1894
ss(g4
g2
g16
g5
tp1895
(dp1896
I0
I0
sI20
I0
sI-45
I0
sI-20
I0
sI45
I0
ss(g4
g16
g3
g38
tp1897
(dp1898
I0
I0
sI20
I0
sI-45
I0
sI-20
I0
sI45
I0
ss(g4
g2
g16
g89
tp1899
(dp1900
I0
I0
sI20
I0
sI-45
I0
sI-20
I0
sI45
I0
ss(g2
g35
g35
g46
tp1901
(dp1902
I0
I0
sI20
I0
sI-45
I0
sI-20
I0
sI45
I0
ss(g2
g16
g4
g101
tp1903
(dp1904
I0
I0
sI20
I0
sI-45
I0
sI-20
I0
sI45
g8
(g10
S'\x95\xb7!\x9b\x10(\x1d@'
tRp1905
ss(g2
g4
g3
g32
tp1906
(dp1907
I0
F-0.40000000000000002
sI20
F-0.40000000000000002
sI-45
I0
sI-20
g8
(g10
S'^\xb9\x1a\x9e\x85\xc7\x11@'
tRp1908
sI45
g8
(g10
S'\xa82m\xb2\xd1\xea\xe4\xbf'
tRp1909
ss(g2
g16
g16
g89
tp1910
(dp1911
I0
I0
sI20
I0
sI-45
I0
sI-20
I0
sI45
I0
ss(g2
g3
g2
g5
tp1912
(dp1913
I0
g8
(g10
S'\xfdQ\xddse^\x12\xc0'
tRp1914
sI20
g8
(g10
S'\xcf=\xac$i\xbc\x12\xc0'
tRp1915
sI-45
g8
(g10
S'2\x92\x7f\xac\x19\xdc\x12\xc0'
tRp1916
sI-20
g8
(g10
S'\xdc\x9b\xc8\xe6fo\x12\xc0'
tRp1917
sI45
g8
(g10
S'n^~\xc2\xdc\x8e\x12\xc0'
tRp1918
ss(g4
g16
g2
g24
tp1919
(dp1920
I0
I0
sI20
I0
sI-45
I0
sI-20
I0
sI45
I0
ss(g4
g16
g35
g70
tp1921
(dp1922
I0
I0
sI20
I0
sI-45
I0
sI-20
I0
sI45
I0
ss(g16
g3
g16
g5
tp1923
(dp1924
I0
g8
(g10
S'\xdc\xee\xc5\x982\xed\x04\xc0'
tRp1925
sI20
g8
(g10
S'I\x08\xab\xcd\xd6\xd5\x06\xc0'
tRp1926
sI-45
g8
(g10
S'\x90\x92,\x01\xfba\x06\xc0'
tRp1927
sI-20
g8
(g10
S'\xe9\xcc\xd6\xfe\xe9\xe1\x04\xc0'
tRp1928
sI45
g8
(g10
S'\x92\xeb\x85\xde\x0cA\x05\xc0'
tRp1929
ss(g16
g2
g4
g32
tp1930
(dp1931
I0
I0
sI20
F0.25
sI-45
I0
sI-20
I0
sI45
I0
ss(g4
g2
g16
g101
tp1932
(dp1933
I0
I0
sI20
I0
sI-45
I0
sI-20
I0
sI45
I0
ss(g16
g16
g2
g5
tp1934
(dp1935
I0
g8
(g10
S'\x8cN=\xbf\xcd\x91\x01\xc0'
tRp1936
sI20
g8
(g10
S'\x04\x04\x06\xdc\x06\xb7\x01\xc0'
tRp1937
sI-45
g8
(g10
S'\xc1\xf3\xf2\xed\xd3\xba\x01\xc0'
tRp1938
sI-20
g8
(g10
S'\x8b\xc2%F\t~\x01\xc0'
tRp1939
sI45
g8
(g10
S'\x1do\xf4N\x89\xd7\x02\xc0'
tRp1940
ss(g16
g35
g35
g24
tp1941
(dp1942
I0
I0
sI20
I0
sI-45
I0
sI-20
I0
sI45
I0
ss(g4
g16
g3
g46
tp1943
(dp1944
I0
I0
sI20
I0
sI-45
I0
sI-20
I0
sI45
I0
ss(g16
g35
g3
g24
tp1945
(dp1946
I0
g8
(g10
S'4\xcd\x87\xa4!\xc3\x0f\xc0'
tRp1947
sI20
g8
(g10
S'\xd3{\x9e\x1f\xdcU\x0f\xc0'
tRp1948
sI-45
g8
(g10
S'[d>\x97\xb4\x17\x0f\xc0'
tRp1949
sI-20
g8
(g10
S'\xa6\xdf\x19\xd6\x0f\xe0\x0e\xc0'
tRp1950
sI45
g8
(g10
S"!H\x9f'\xd7\xe6\r\xc0"
tRp1951
ss(g2
g2
g4
g17
tp1952
(dp1953
I0
F1.1772693695141954
sI20
g8
(g10
S'\xe2\x0f\x84\x99\x02\xf3\xe6\xbf'
tRp1954
sI-45
I0
sI-20
I0
sI45
F-0.14745625000000001
ss(g16
g4
g3
g70
tp1955
(dp1956
I0
g8
(g10
S't\xc7\xbe\xbe\x87O\x04\xc0'
tRp1957
sI20
g8
(g10
S'3\xd1\xe9jS\x8a\x03\xc0'
tRp1958
sI-45
g8
(g10
S'\xe1\xc7e\xed\xb6C\x01\xc0'
tRp1959
sI-20
g8
(g10
S'@M\xec*Xo\x03\xc0'
tRp1960
sI45
g8
(g10
S'\x11\x00l\xe8\xe4\x84\x05\xc0'
tRp1961
ss(g4
g16
g16
g101
tp1962
(dp1963
I0
I0
sI20
I0
sI-45
I0
sI-20
I0
sI45
I0
ss(g2
g3
g35
g70
tp1964
(dp1965
I0
g8
(g10
S'q\x8e\xd8\x03d\xbc\x10\xc0'
tRp1966
sI20
g8
(g10
S'L|XUY<\x11\xc0'
tRp1967
sI-45
g8
(g10
S"\x8a'\x86\x07>\xcb\x11\xc0"
tRp1968
sI-20
g8
(g10
S'\xbb\x97B\x15\xd8\xed\x10\xc0'
tRp1969
sI45
g8
(g10
S')\x92\xc4X\x99\xa4\x11\xc0'
tRp1970
ss(g4
g4
g16
g5
tp1971
(dp1972
I0
I0
sI20
I0
sI-45
I0
sI-20
I0
sI45
I0
ss(g2
g16
g4
g32
tp1973
(dp1974
I0
I0
sI20
I0
sI-45
F1
sI-20
F0
sI45
F0.25
ss(g4
g2
g3
g32
tp1975
(dp1976
I0
I0
sI20
I0
sI-45
I0
sI-20
I0
sI45
I0
ss(g4
g4
g3
g5
tp1977
(dp1978
I0
I0
sI20
I0
sI-45
I0
sI-20
I0
sI45
I0
ss(g2
g4
g16
g70
tp1979
(dp1980
I0
g8
(g10
S'S>\xd0n\x84y\x0b\xc0'
tRp1981
sI20
g8
(g10
S'\x03\xbb\x97\xe9\xae\xfc\x08\xc0'
tRp1982
sI-45
g8
(g10
S'\x82\x88X\xbe\x00[\x0b\xc0'
tRp1983
sI-20
g8
(g10
S'\xd2\xb2\x9d\xae\xd5M\x0b\xc0'
tRp1984
sI45
g8
(g10
S'\x89\xb3\xdc\x96\xd1\xb1\n\xc0'
tRp1985
ss(g16
g2
g2
g89
tp1986
(dp1987
I0
I0
sI20
I0
sI-45
I0
sI-20
I0
sI45
I0
ss(g16
g16
g4
g38
tp1988
(dp1989
I0
g8
(g10
S'\xf2\xfb\xc3[\x84H\x03\xc0'
tRp1990
sI20
g8
(g10
S'\xf0\xea\x1a\x9d\xa0D\x04\xc0'
tRp1991
sI-45
g8
(g10
S'\x1a\xf9O\xd5\x8a\xb1\x04\xc0'
tRp1992
sI-20
g8
(g10
S'r\xb9\xa2\xc8"\xd3\x06\xc0'
tRp1993
sI45
g8
(g10
S'\x03\xcb\x12&\xbf0\x02\xc0'
tRp1994
ss(g16
g3
g2
g46
tp1995
(dp1996
I0
g8
(g10
S'\x0c\x956\xaa}\x8e\xdd\xbf'
tRp1997
sI20
F-0.96232517823036778
sI-45
g8
(g10
S'{TT\xea\xe1m\xed?'
tRp1998
sI-20
g8
(g10
S'\xb1,\xf5+r\x1f\xe4\xbf'
tRp1999
sI45
I0
ss(g16
g3
g2
g17
tp2000
(dp2001
I0
I0
sI20
F-0.96279844093659828
sI-45
I0
sI-20
I0
sI45
I0
ss(g16
g16
g4
g5
tp2002
(dp2003
I0
g8
(g10
S"\xe9&\xfc>'8\x02\xc0"
tRp2004
sI20
g8
(g10
S'\x180\x83\x05Km\x00\xc0'
tRp2005
sI-45
g8
(g10
S'\x1d}W;\xf8\xfc\x04\xc0'
tRp2006
sI-20
g8
(g10
S'wE?b\xab\xeb\x03\xc0'
tRp2007
sI45
g8
(g10
S'\x16R\xc7\xa8\xa9\xd0\x02\xc0'
tRp2008
ss(g4
g16
g3
g101
tp2009
(dp2010
I0
I0
sI20
I0
sI-45
I0
sI-20
I0
sI45
I0
ss(g2
g35
g3
g32
tp2011
(dp2012
I0
I0
sI20
I0
sI-45
I0
sI-20
g8
(g10
S'\xcc+\xab;\xb8\xf9\xe8\xbf'
tRp2013
sI45
F-0.084375000000000006
ss(g16
g3
g16
g38
tp2014
(dp2015
I0
g8
(g10
S'$\xbbLv\xcd\x90\x06\xc0'
tRp2016
sI20
g8
(g10
S'\x034\xe2\xc6\xef\xf2\x06\xc0'
tRp2017
sI-45
g8
(g10
S'\xae1J\xc6\xe9\xf6\x04\xc0'
tRp2018
sI-20
g8
(g10
S'\xd4\x00|\xd8\xf6;\x07\xc0'
tRp2019
sI45
g8
(g10
S'&\xd4\xcf\xb3X4\x02\xc0'
tRp2020
ss(g4
g4
g4
g5
tp2021
(dp2022
I0
I0
sI20
I0
sI-45
I0
sI-20
I0
sI45
I0
ss(g2
g4
g35
g101
tp2023
(dp2024
I0
g8
(g10
S'(~\xb7R,@\xe5?'
tRp2025
sI20
g8
(g10
S'"\xde\x1b\xb1\xfd\xc6\x12@'
tRp2026
sI-45
I0
sI-20
g8
(g10
S'N%\xa7=~q\x12@'
tRp2027
sI45
F-1.417816706828066
ss(g4
g35
g16
g24
tp2028
(dp2029
I0
I0
sI20
I0
sI-45
I0
sI-20
I0
sI45
I0
ss(g2
g2
g35
g5
tp2030
(dp2031
I0
g8
(g10
S'\x0f\x14\x9f!\x98\xc2\x11\xc0'
tRp2032
sI20
g8
(g10
S'O6-\xcb\xd55\x0e\xc0'
tRp2033
sI-45
g8
(g10
S'x\xa1\x1b\xd0X\xae\x11\xc0'
tRp2034
sI-20
g8
(g10
S'\xa3\xad!\xa5\xe4\xb1\x12\xc0'
tRp2035
sI45
g8
(g10
S'\xe2\x9f\x99\x8023\x12\xc0'
tRp2036
ss(g2
g3
g4
g46
tp2037
(dp2038
I0
g8
(g10
S'\x8a\xcb=\xc2\xe3J\x03@'
tRp2039
sI20
g8
(g10
S'"\xfe\xb6\xb4\xc0\xa4\x01@'
tRp2040
sI-45
F0.522510926875
sI-20
F-0.20000000000000001
sI45
g8
(g10
S',\xd9<M\x9e\x91\x14@'
tRp2041
ss(g2
g16
g2
g70
tp2042
(dp2043
I0
g8
(g10
S'\xbb\xc2\x9cU\xab\xe9\xfe\xbf'
tRp2044
sI20
g8
(g10
S'\xf9\r\xa6\xc6\xf8\x80\x00\xc0'
tRp2045
sI-45
g8
(g10
S'S<\x1a\xad\x01\x91\x01\xc0'
tRp2046
sI-20
g8
(g10
S'C\xe4I\xd2\xf8*\x01\xc0'
tRp2047
sI45
g8
(g10
S'\xc8\xc3b\x9d6\x84\x02\xc0'
tRp2048
ss(g2
g4
g2
g24
tp2049
(dp2050
I0
g8
(g10
S'\x00\x1aL\xab\x9c=\x11\xc0'
tRp2051
sI20
g8
(g10
S"&'\xd1n\x9aN\x11\xc0"
tRp2052
sI-45
g8
(g10
S'\xcd\x0e{\xc8*2\x11\xc0'
tRp2053
sI-20
g8
(g10
S'R_\x93\xbc#2\x11\xc0'
tRp2054
sI45
g8
(g10
S'W\x831\xe8=9\x11\xc0'
tRp2055
ss(g2
g3
g2
g101
tp2056
(dp2057
I0
g8
(g10
S'\xd9\x04)\xf2:\x9f\x15@'
tRp2058
sI20
g8
(g10
S'\xe3\xcd|\xa7I\xa1+@'
tRp2059
sI-45
g8
(g10
S'vHuPB\xd5\x1d@'
tRp2060
sI-20
g8
(g10
S'\xbc\t\xbd\xa4\x82t"@'
tRp2061
sI45
g8
(g10
S'\xba\xc6\xfc\x8b\x1a%"@'
tRp2062
ss(g4
g35
g3
g24
tp2063
(dp2064
I0
I0
sI20
I0
sI-45
I0
sI-20
I0
sI45
I0
ss(g4
g16
g2
g5
tp2065
(dp2066
I0
I0
sI20
I0
sI-45
I0
sI-20
I0
sI45
I0
ss(g16
g16
g16
g17
tp2067
(dp2068
I0
I0
sI20
I0
sI-45
I0
sI-20
I0
sI45
I0
ss(g4
g16
g16
g89
tp2069
(dp2070
I0
I0
sI20
I0
sI-45
I0
sI-20
I0
sI45
I0
ss(g16
g3
g16
g32
tp2071
(dp2072
I0
I0
sI20
I0
sI-45
I0
sI-20
I0
sI45
I0
ss(g4
g3
g35
g38
tp2073
(dp2074
I0
I0
sI20
I0
sI-45
I0
sI-20
I0
sI45
I0
ss(g2
g2
g3
g89
tp2075
(dp2076
I0
I0
sI20
I0
sI-45
I0
sI-20
g8
(g10
S'\xedp\x9aiD\xd9\x12@'
tRp2077
sI45
g8
(g10
S'\xca\xfbW\xbd\x81A\xcd?'
tRp2078
ss(g4
g35
g3
g101
tp2079
(dp2080
I0
I0
sI20
I0
sI-45
I0
sI-20
I0
sI45
I0
ss(g4
g35
g16
g46
tp2081
(dp2082
I0
I0
sI20
I0
sI-45
I0
sI-20
I0
sI45
I0
ss(g4
g4
g4
g46
tp2083
(dp2084
I0
I0
sI20
I0
sI-45
I0
sI-20
I0
sI45
I0
ss(g4
g4
g2
g5
tp2085
(dp2086
I0
I0
sI20
I0
sI-45
I0
sI-20
I0
sI45
I0
ss(g4
g3
g3
g32
tp2087
(dp2088
I0
I0
sI20
I0
sI-45
I0
sI-20
I0
sI45
I0
ss(g4
g35
g16
g38
tp2089
(dp2090
I0
I0
sI20
I0
sI-45
I0
sI-20
I0
sI45
I0
ss(g16
g4
g35
g101
tp2091
(dp2092
I0
I0
sI20
I0
sI-45
I0
sI-20
I0
sI45
I0
ss(g4
g16
g3
g5
tp2093
(dp2094
I0
I0
sI20
I0
sI-45
I0
sI-20
I0
sI45
I0
ss(g16
g3
g16
g101
tp2095
(dp2096
I0
I0
sI20
I0
sI-45
I0
sI-20
I0
sI45
I0
ss(g4
g4
g16
g46
tp2097
(dp2098
I0
I0
sI20
I0
sI-45
I0
sI-20
I0
sI45
I0
ss(g16
g16
g16
g5
tp2099
(dp2100
I0
g8
(g10
S'\x06T\x0b\xfco\x89\x05\xc0'
tRp2101
sI20
g8
(g10
S'\xb3\xb6\xc9"\xd3\xa9\x03\xc0'
tRp2102
sI-45
g8
(g10
S'\xe3\xa7]\xe9v\x04\x03\xc0'
tRp2103
sI-20
g8
(g10
S'\x1c*\n\x10*+\x05\xc0'
tRp2104
sI45
g8
(g10
S'\xec+O\xef\xaa\x93\xff\xbf'
tRp2105
ss(g4
g35
g16
g89
tp2106
(dp2107
I0
I0
sI20
I0
sI-45
I0
sI-20
I0
sI45
I0
ss(g16
g16
g3
g70
tp2108
(dp2109
I0
g8
(g10
S'\xd2\xb7}\x981\xd7\x06\xc0'
tRp2110
sI20
g8
(g10
S'\xc7\xbfK&\xa1{\x05\xc0'
tRp2111
sI-45
g8
(g10
S'#\xd1\x05f\xe2\x81\xf9\xbf'
tRp2112
sI-20
g8
(g10
S'o\xd0\x81K\xa2W\x05\xc0'
tRp2113
sI45
g8
(g10
S'\xd8o\xb6!\xbc+\x06\xc0'
tRp2114
ss(g2
g2
g35
g24
tp2115
(dp2116
I0
g8
(g10
S'\x8d\x96\xf4\x1a"T\x12\xc0'
tRp2117
sI20
g8
(g10
S'\x91a\xba\x04\xc3!\x12\xc0'
tRp2118
sI-45
g8
(g10
S'\xea\xaa6P\xe7\xb6\x12\xc0'
tRp2119
sI-20
g8
(g10
S'\x90d\xbey\xed\xbe\x11\xc0'
tRp2120
sI45
g8
(g10
S'\xc2\xa2\xc0\x9a_\\\x11\xc0'
tRp2121
ss(g2
g35
g35
g101
tp2122
(dp2123
I0
F0.34154038235099637
sI20
F-1.14397452309893
sI-45
g8
(g10
S'\xf9\x1dg\xc7}P\xf3?'
tRp2124
sI-20
g8
(g10
S'\xa4\xf9\xf3L\x8c\xe7\xf8\xbf'
tRp2125
sI45
g8
(g10
S'\xc6\xd8\x89\x9b\x8a\x17\x0c@'
tRp2126
ss(g4
g4
g4
g24
tp2127
(dp2128
I0
I0
sI20
I0
sI-45
I0
sI-20
I0
sI45
I0
ss(g4
g35
g35
g5
tp2129
(dp2130
I0
I0
sI20
I0
sI-45
I0
sI-20
I0
sI45
I0
ss(g2
g2
g4
g32
tp2131
(dp2132
I0
I0
sI20
I0
sI-45
I0
sI-20
I0
sI45
F0.25
ss(g16
g16
g35
g46
tp2133
(dp2134
I0
F-0.4068053200031827
sI20
F-0.20000000000000001
sI-45
I0
sI-20
I0
sI45
F-0.20000000000000001
ss(g4
g3
g3
g101
tp2135
(dp2136
I0
I0
sI20
I0
sI-45
I0
sI-20
I0
sI45
I0
ss(g2
g2
g16
g5
tp2137
(dp2138
I0
g8
(g10
S'{\x1e\xd9\xc2\x94\x16\x11\xc0'
tRp2139
sI20
g8
(g10
S'X)\x88\xb1\xc7!\x11\xc0'
tRp2140
sI-45
g8
(g10
S'\xc0\x8ey\xa7\xbaB\x11\xc0'
tRp2141
sI-20
g8
(g10
S'h\xdf-\x81\xdd&\x11\xc0'
tRp2142
sI45
g8
(g10
S'u" \xcf\xa5T\x11\xc0'
tRp2143
ss(g16
g16
g3
g38
tp2144
(dp2145
I0
g8
(g10
S'\xc2\xb7^Oq\xe9\x08\xc0'
tRp2146
sI20
g8
(g10
S"]\x0cg\xb7'#\x0c\xc0"
tRp2147
sI-45
g8
(g10
S'U\xeeAb\xc6x\x0b\xc0'
tRp2148
sI-20
g8
(g10
S'\x86\xe1\xb7_\xa7\x1c\x0c\xc0'
tRp2149
sI45
g8
(g10
S'\xc6I*\xd2\xf3\xe4\x0b\xc0'
tRp2150
ss(g2
g35
g3
g17
tp2151
(dp2152
I0
g8
(g10
S'\xc2G\xd3\x92X9\xd2\xbf'
tRp2153
sI20
g8
(g10
S'\xba\x1c\xba.\xb8\xc6\xeb\xbf'
tRp2154
sI-45
g8
(g10
S'kf\xbdr|o\x05@'
tRp2155
sI-20
g8
(g10
S'\xaa`\xcc\xa2\xd0t\xe8\xbf'
tRp2156
sI45
g8
(g10
S'\xe6\xbanis\x94\xbb\xbf'
tRp2157
ss(g16
g3
g3
g5
tp2158
(dp2159
I0
g8
(g10
S'|I&\x0e\xfb\xec\n\xc0'
tRp2160
sI20
g8
(g10
S'\xae\x81\xcd\x19\xd7>\n\xc0'
tRp2161
sI-45
g8
(g10
S'\xd2\x98m\xbcl\x03\x0b\xc0'
tRp2162
sI-20
g8
(g10
S'\x94K\xcfSw\xd2\x08\xc0'
tRp2163
sI45
g8
(g10
S'\x10\xbb0\xa9\x80n\x0b\xc0'
tRp2164
ss(g2
g4
g16
g38
tp2165
(dp2166
I0
g8
(g10
S'\x9c\xbd\xc4\xceJ5\x12\xc0'
tRp2167
sI20
g8
(g10
S'\xa8\x04\xb9*5\x97\x11\xc0'
tRp2168
sI-45
g8
(g10
S'\xbc\x02\xf62S\xa5\x11\xc0'
tRp2169
sI-20
g8
(g10
S"\x93\x19\xc8z'6\x0f\xc0"
tRp2170
sI45
g8
(g10
S'\xef\xd7kL\x03\xb5\x11\xc0'
tRp2171
ss(g4
g16
g2
g101
tp2172
(dp2173
I0
I0
sI20
I0
sI-45
I0
sI-20
I0
sI45
I0
ss(g4
g3
g35
g70
tp2174
(dp2175
I0
I0
sI20
I0
sI-45
I0
sI-20
I0
sI45
I0
ss(g16
g16
g2
g32
tp2176
(dp2177
I0
I0
sI20
I0
sI-45
I0
sI-20
I0
sI45
I0
ss(g16
g16
g4
g70
tp2178
(dp2179
I0
g8
(g10
S"\xb7'\xcb\x89\x042\x02\xc0"
tRp2180
sI20
g8
(g10
S'\nX\x8b\xcc\x987\x02\xc0'
tRp2181
sI-45
g8
(g10
S'-\xe5\x10\xd0\x02\x98\x02\xc0'
tRp2182
sI-20
g8
(g10
S'Lm\xbeQu\xf5\x01\xc0'
tRp2183
sI45
g8
(g10
S'\x8b\xc6\xa7 \x8c\xaf\x02\xc0'
tRp2184
ss(g4
g3
g2
g46
tp2185
(dp2186
I0
I0
sI20
I0
sI-45
I0
sI-20
I0
sI45
I0
ss(g16
g3
g2
g32
tp2187
(dp2188
I0
I0
sI20
I0
sI-45
F-0.68269364956384759
sI-20
I0
sI45
g8
(g10
S'D\xdc\xc3\xdb\xcb\x9d\xe6\xbf'
tRp2189
ss(g16
g4
g16
g5
tp2190
(dp2191
I0
g8
(g10
S'\xbb\x8f\xefW\x18N\x04\xc0'
tRp2192
sI20
g8
(g10
S'\x19\xbf\xe0v\xc0\xf8\x01\xc0'
tRp2193
sI-45
g8
(g10
S'[K\x05\xa0ma\x02\xc0'
tRp2194
sI-20
g8
(g10
S'\xd4s\xef\xb0H\xa4\x00\xc0'
tRp2195
sI45
g8
(g10
S'p\xb5]\x1ch\x1c\x03\xc0'
tRp2196
ss(g4
g4
g16
g38
tp2197
(dp2198
I0
I0
sI20
I0
sI-45
I0
sI-20
I0
sI45
I0
ss(g2
g4
g3
g70
tp2199
(dp2200
I0
g8
(g10
S'\xb7\x8f\xa0\x82@\xce\x11\xc0'
tRp2201
sI20
g8
(g10
S'\x91\xb8N\x11\x18\xeb\x11\xc0'
tRp2202
sI-45
g8
(g10
S'\xbdE\x16T\x97\xe1\x11\xc0'
tRp2203
sI-20
g8
(g10
S'\x9f\x1c\x86\x89\xf1(\x0e\xc0'
tRp2204
sI45
g8
(g10
S'yp\x11F\xe5\xd9\x11\xc0'
tRp2205
ss(g2
g16
g4
g17
tp2206
(dp2207
I0
I0
sI20
I0
sI-45
I0
sI-20
F0
sI45
I0
ss(g4
g3
g2
g38
tp2208
(dp2209
I0
I0
sI20
I0
sI-45
I0
sI-20
I0
sI45
I0
ss(g2
g4
g35
g38
tp2210
(dp2211
I0
g8
(g10
S'r\x18\xe1W\xb0\xa8\x11\xc0'
tRp2212
sI20
g8
(g10
S'7\xff\xa4kA\x98\x11\xc0'
tRp2213
sI-45
g8
(g10
S'[H\xb7\xa7\x83C\x11\xc0'
tRp2214
sI-20
g8
(g10
S'\xb9\x85b\xaa\t\xd2\x11\xc0'
tRp2215
sI45
g8
(g10
S'\x00~\x02\xe3F\x80\x11\xc0'
tRp2216
ss(g2
g2
g16
g17
tp2217
(dp2218
I0
g8
(g10
S'\xcfV\x8f\xb2\xd7\x7f\xea\xbf'
tRp2219
sI20
I0
sI-45
I0
sI-20
I0
sI45
I0
ss(g4
g2
g35
g32
tp2220
(dp2221
I0
I0
sI20
I0
sI-45
I0
sI-20
I0
sI45
I0
ss(g2
g35
g4
g89
tp2222
(dp2223
I0
I0
sI20
g8
(g10
S'\xcc\xfe\x10\x92\xd6_\xed?'
tRp2224
sI-45
I0
sI-20
I0
sI45
F-0.20000000000000001
ss(g2
g3
g35
g32
tp2225
(dp2226
I0
I0
sI20
F-0.020686652944356454
sI-45
I0
sI-20
I0
sI45
g8
(g10
S'NM\xf7(\x03i\xf6?'
tRp2227
ss(g4
g16
g35
g32
tp2228
(dp2229
I0
I0
sI20
I0
sI-45
I0
sI-20
I0
sI45
I0
ss(g2
g4
g4
g70
tp2230
(dp2231
I0
g8
(g10
S'\xce\x16\x16\xc00\xa6\x04\xc0'
tRp2232
sI20
g8
(g10
S'G\xca\x17x\xb4l\x05\xc0'
tRp2233
sI-45
g8
(g10
S'\x8e\xe3\xd3\xc86\x85\x01\xc0'
tRp2234
sI-20
g8
(g10
S'%\x8a\x8b\xa3!\x1c\x01\xc0'
tRp2235
sI45
g8
(g10
S'\xf2\xefTZH\x1b\x03\xc0'
tRp2236
ss(g4
g3
g16
g46
tp2237
(dp2238
I0
I0
sI20
I0
sI-45
I0
sI-20
I0
sI45
I0
ss(g2
g35
g4
g38
tp2239
(dp2240
I0
g8
(g10
S'r\x05W\xf2\xa8\xcf\x11\xc0'
tRp2241
sI20
g8
(g10
S'\x15]$\xdf\x90\xb6\x11\xc0'
tRp2242
sI-45
g8
(g10
S'<\xa0\xaa2\tR\x12\xc0'
tRp2243
sI-20
g8
(g10
S'\xf5\xfc\xa3;a1\x12\xc0'
tRp2244
sI45
g8
(g10
S'\xfc\xed\x1c\x97\x14_\x10\xc0'
tRp2245
ss(g16
g2
g16
g70
tp2246
(dp2247
I0
g8
(g10
S'\xc1\xf0\x1d&\x97\xad\x05\xc0'
tRp2248
sI20
g8
(g10
S'\xc85\xb2\xb0\xf6\x10\x04\xc0'
tRp2249
sI-45
g8
(g10
S'\xe8\xa3\x85\xc1\xf08\x06\xc0'
tRp2250
sI-20
g8
(g10
S'>UbO{l\x04\xc0'
tRp2251
sI45
g8
(g10
S'\xb0\xb9\xc3x\x04\xa8\x04\xc0'
tRp2252
ss(g16
g16
g16
g89
tp2253
(dp2254
I0
I0
sI20
I0
sI-45
I0
sI-20
I0
sI45
I0
ss(g2
g4
g4
g38
tp2255
(dp2256
I0
g8
(g10
S"\xb4i'\xed\x0e\x8f\x11\xc0"
tRp2257
sI20
g8
(g10
S'\xa9f\xa0\xb4F\x93\x11\xc0'
tRp2258
sI-45
g8
(g10
S'\xa7\xb3\xa7\xcf\xd2\xb3\x11\xc0'
tRp2259
sI-20
g8
(g10
S'\xb0\x19\xc3\xda\xf0n\x11\xc0'
tRp2260
sI45
g8
(g10
S',\x1e\xe0r\x89\x8a\x11\xc0'
tRp2261
ss(g2
g35
g4
g5
tp2262
(dp2263
I0
g8
(g10
S'B\xd7\xd2M)\x13\x11\xc0'
tRp2264
sI20
g8
(g10
S'\xf0k2\xecf4\x11\xc0'
tRp2265
sI-45
g8
(g10
S'4\x18N\x98\xfc!\x11\xc0'
tRp2266
sI-20
g8
(g10
S'\x00\xcf\x18Xq\x17\x11\xc0'
tRp2267
sI45
g8
(g10
S'\x96\x9b\x90am\x1f\x11\xc0'
tRp2268
ss(g4
g3
g4
g24
tp2269
(dp2270
I0
I0
sI20
I0
sI-45
I0
sI-20
I0
sI45
I0
ss(g2
g35
g4
g70
tp2271
(dp2272
I0
g8
(g10
S'tu\xfag3\xef\xfc\xbf'
tRp2273
sI20
g8
(g10
S'\x8fz\x07\xd4\xa7\xaa\xf8\xbf'
tRp2274
sI-45
g8
(g10
S'^[\x16\xdb\xdb\x07\x02\xc0'
tRp2275
sI-20
g8
(g10
S'\xf9zo-)\x0e\xf6\xbf'
tRp2276
sI45
g8
(g10
S'\xe8sW\xad\x86\xb3\xf4\xbf'
tRp2277
ss(g4
g4
g3
g32
tp2278
(dp2279
I0
I0
sI20
I0
sI-45
I0
sI-20
I0
sI45
I0
ss(g16
g4
g3
g24
tp2280
(dp2281
I0
g8
(g10
S'\xd8\xbbU%\xfc\t\x03\xc0'
tRp2282
sI20
g8
(g10
S'8\x97\xf7v\xa5{\x04\xc0'
tRp2283
sI-45
g8
(g10
S'\t\xfd\xbc4v\xc7\x00\xc0'
tRp2284
sI-20
g8
(g10
S'\xde\xcbm\xfe<t\x03\xc0'
tRp2285
sI45
g8
(g10
S'N^\xdd\xcb\xaa\xb5\x01\xc0'
tRp2286
ss(g4
g3
g16
g89
tp2287
(dp2288
I0
I0
sI20
I0
sI-45
I0
sI-20
I0
sI45
I0
ss(g4
g3
g16
g24
tp2289
(dp2290
I0
I0
sI20
I0
sI-45
I0
sI-20
I0
sI45
I0
ss(g16
g2
g3
g101
tp2291
(dp2292
I0
I0
sI20
F-0.20000000000000001
sI-45
I0
sI-20
I0
sI45
F-0.16000000000000003
ss(g2
g3
g4
g17
tp2293
(dp2294
I0
g8
(g10
S'\rs\xa0\x1a\xb8+\xbd?'
tRp2295
sI20
I0
sI-45
I0
sI-20
I0
sI45
g8
(g10
S'4\x97q\x08m0\x02@'
tRp2296
ss(g2
g16
g35
g101
tp2297
(dp2298
I0
I0
sI20
I0
sI-45
I0
sI-20
g8
(g10
S'.\x01\x9a\xeb\x19\x8e\x18@'
tRp2299
sI45
F1
ss(g2
g4
g4
g46
tp2300
(dp2301
I0
I0
sI20
F-0.20000000000000001
sI-45
I0
sI-20
F-0.20000000000000001
sI45
F-0.74525202086724374
ss(g2
g3
g4
g24
tp2302
(dp2303
I0
g8
(g10
S'R\xcc\x07\x01"\x99\r\xc0'
tRp2304
sI20
g8
(g10
S'\x02\xbc?^?\xf7\x0f\xc0'
tRp2305
sI-45
g8
(g10
S'd\xc5\xe8f\xc0;\x12\xc0'
tRp2306
sI-20
g8
(g10
S'\x86d\xffV\xb7<\x12\xc0'
tRp2307
sI45
g8
(g10
S'\x12\x06\xceP\xf79\x12\xc0'
tRp2308
ss(g2
g4
g3
g89
tp2309
(dp2310
I0
I0
sI20
g8
(g10
S'^k\x87U=Q\xec?'
tRp2311
sI-45
I0
sI-20
F-0.18400000000000002
sI45
g8
(g10
S':\x14(4\x06K\n@'
tRp2312
ss(g16
g4
g16
g38
tp2313
(dp2314
I0
g8
(g10
S"\x01S'q\x92\xdd\x01\xc0"
tRp2315
sI20
g8
(g10
S'\xfa\xc5\xd2E\x97\xf2\x02\xc0'
tRp2316
sI-45
g8
(g10
S'\xda\x98\x18\xdc\xf1\x80\x03\xc0'
tRp2317
sI-20
g8
(g10
S'\xeb\xc5c\x83\xd9L\x00\xc0'
tRp2318
sI45
g8
(g10
S'\xc7S\x9e{1\xa7\x00\xc0'
tRp2319
ss(g16
g2
g35
g70
tp2320
(dp2321
I0
I0
sI20
I0
sI-45
I0
sI-20
I0
sI45
I0
ss(g4
g4
g4
g38
tp2322
(dp2323
I0
I0
sI20
I0
sI-45
I0
sI-20
I0
sI45
I0
ss(g2
g3
g3
g32
tp2324
(dp2325
I0
F-0.40000000000000002
sI20
g8
(g10
S'\xf6m\xcaV@B\xb0\xbf'
tRp2326
sI-45
F-0.20000000000000001
sI-20
g8
(g10
S'\xf4\x92N\xb1\x15\xc9\xea\xbf'
tRp2327
sI45
g8
(g10
S'\x1e\x06\xb2\x90n\xcd\xe5\xbf'
tRp2328
ss(g2
g3
g2
g32
tp2329
(dp2330
I0
g8
(g10
S'\xb0\xe3+\x06\xd7\x1e\xf1\xbf'
tRp2331
sI20
F-1.3979293887543753
sI-45
F-1.5631031212407895
sI-20
g8
(g10
S'R>V\x849 \xf5\xbf'
tRp2332
sI45
g8
(g10
S'\xb9\x8c\n=\xa8p\xdf\xbf'
tRp2333
ss(g2
g3
g3
g5
tp2334
(dp2335
I0
g8
(g10
S'\\\xb7%\x1e\x97\x7f\x13\xc0'
tRp2336
sI20
g8
(g10
S'!\xea\xf1\xeea\xcb\x14\xc0'
tRp2337
sI-45
g8
(g10
S'\x12\x89\x8f\x062U\x11\xc0'
tRp2338
sI-20
g8
(g10
S'\xf3d\x8a\xf5?\xf8\x12\xc0'
tRp2339
sI45
g8
(g10
S'\x86<P)\xeai\x13\xc0'
tRp2340
ss(g16
g3
g3
g101
tp2341
(dp2342
I0
g8
(g10
S'\x80\x8c\xd8\x99\xc0\xb8\xcf\xbf'
tRp2343
sI20
I0
sI-45
I0
sI-20
I0
sI45
F-0.21014390672302527
ss(g2
g2
g35
g38
tp2344
(dp2345
I0
g8
(g10
S'\x05\xa2+\xc9\xca\xb3\x13\xc0'
tRp2346
sI20
g8
(g10
S'\xcbQk\x91\xd5D\x12\xc0'
tRp2347
sI-45
g8
(g10
S'^f(\x10\xdb\xc6\x12\xc0'
tRp2348
sI-20
g8
(g10
S'\x8f\xbe\xb0\x9a\x19\xb2\x12\xc0'
tRp2349
sI45
g8
(g10
S'\xcc\xc3\xac\xb3\xee\xf8\x11\xc0'
tRp2350
ss(g2
g2
g4
g70
tp2351
(dp2352
I0
g8
(g10
S'\xee\xdf\xb0\xa5u\xd5\x02\xc0'
tRp2353
sI20
g8
(g10
S'\x1a\xae\x14\xb1\xb15\x02\xc0'
tRp2354
sI-45
g8
(g10
S'\x98\x14\xfd\xdeSY\x02\xc0'
tRp2355
sI-20
g8
(g10
S'c^J\x8d\xf5v\xfe\xbf'
tRp2356
sI45
g8
(g10
S'\xcdF\xe8G]y\x02\xc0'
tRp2357
ss(g16
g4
g16
g70
tp2358
(dp2359
I0
g8
(g10
S'\xeb\x12\xf1\xf5\x7fa\xfd\xbf'
tRp2360
sI20
g8
(g10
S'\xa5\xff\xd2\xcb\xad\t\x03\xc0'
tRp2361
sI-45
g8
(g10
S'\xc49\xe1j\xfc\x91\x01\xc0'
tRp2362
sI-20
g8
(g10
S'\x0bT\xf13R\xec\x01\xc0'
tRp2363
sI45
g8
(g10
S'\x9a\xe1zh6\xdc\x03\xc0'
tRp2364
ss(g16
g3
g35
g24
tp2365
(dp2366
I0
g8
(g10
S'\x90\x16\xd6\xf9\xd6J\x10\xc0'
tRp2367
sI20
g8
(g10
S'\xe2\xab\\ \xefX\x0e\xc0'
tRp2368
sI-45
g8
(g10
S'a\xed\xf3\xabUD\x10\xc0'
tRp2369
sI-20
g8
(g10
S'~U\xb8\xeem\x1f\x10\xc0'
tRp2370
sI45
g8
(g10
S'\xa7\xa0\xd8\xbb\x91&\x10\xc0'
tRp2371
ss(g2
g4
g16
g24
tp2372
(dp2373
I0
g8
(g10
S'N9\x14\x868\xc9\x10\xc0'
tRp2374
sI20
g8
(g10
S"*\xdb\xfa'\x9e\xd6\x10\xc0"
tRp2375
sI-45
g8
(g10
S'q\xa0\x19\xf4sL\x0c\xc0'
tRp2376
sI-20
g8
(g10
S'\xa8\xcc\xf0\x9b\x01\x0c\x11\xc0'
tRp2377
sI45
g8
(g10
S'\xac|7\xa4\xb0\xc0\x10\xc0'
tRp2378
ss(g16
g16
g3
g24
tp2379
(dp2380
I0
g8
(g10
S"+$\xaaH\x10'\x06\xc0"
tRp2381
sI20
g8
(g10
S'\x1a=v\xef%e\x05\xc0'
tRp2382
sI-45
g8
(g10
S'\xc6\x11\x9c\x9bwo\x04\xc0'
tRp2383
sI-20
g8
(g10
S'o\xc8$\x98\xaa\x7f\x02\xc0'
tRp2384
sI45
g8
(g10
S'\xbe\x8el\x1e\xc0\x93\x06\xc0'
tRp2385
ss.