(dp1
(S'Close'
p2
S'Too Far'
p3
S'OK'
p4
S'Bottom'
p5
tp6
(dp7
I0
cnumpy.core.multiarray
scalar
p8
(cnumpy
dtype
p9
(S'f8'
I0
I1
tRp10
(I3
S'<'
NNNI-1
I-1
I0
tbS'?\xd0\x8e\xbb\x9ee\x11\xc0'
tRp11
sI20
g8
(g10
S'Z\x83|&h\x9c\x10\xc0'
tRp12
sI-45
g8
(g10
S'P\xfd\xca\xe8y\xab\x11\xc0'
tRp13
sI-20
g8
(g10
S'\x7f\x92\t\xcc\xfd|\x0c\xc0'
tRp14
sI45
g8
(g10
S'<\xd6\xce\xd0\x85\xee\x11\xc0'
tRp15
ss(g2
g4
S'Far'
p16
S'Close Front'
p17
tp18
(dp19
I0
F1.8
sI20
I0
sI-45
F1
sI-20
F1.8
sI45
I0
ss(g4
g2
g3
g17
tp20
(dp21
I0
I0
sI20
I0
sI-45
I0
sI-20
I0
sI45
I0
ss(g16
g16
g3
g17
tp22
(dp23
I0
I0
sI20
I0
sI-45
I0
sI-20
I0
sI45
I0
ss(g16
g3
g4
S'Front'
p24
tp25
(dp26
I0
g8
(g10
S'XZ;\x87Z\xd8\xcc\xbf'
tRp27
sI20
g8
(g10
S'\x10\xe3Nh*S\xe7?'
tRp28
sI-45
g8
(g10
S'siY\xb4A\t\xe5?'
tRp29
sI-20
g8
(g10
S'\xa9>[\xe5\xb3\xd1\xe4?'
tRp30
sI45
g8
(g10
S'\xf8\x02\x1f8\xc0\x8c\xc7?'
tRp31
ss(g4
g4
g2
S'Close Left'
p32
tp33
(dp34
I0
I0
sI20
I0
sI-45
I0
sI-20
I0
sI45
I0
ss(g4
g16
S'Too Close'
p35
g17
tp36
(dp37
I0
I0
sI20
I0
sI-45
I0
sI-20
I0
sI45
I0
ss(g2
g2
g2
S'Left'
p38
tp39
(dp40
I0
g8
(g10
S'<w\xbc\xd1\x9c\xd0\x10\xc0'
tRp41
sI20
g8
(g10
S'\xc0?\x85\xb1\xb9v\x11\xc0'
tRp42
sI-45
g8
(g10
S'W\x93W:\xda\x9c\x10\xc0'
tRp43
sI-20
g8
(g10
S'\xfa\xa7\xab\xb3\x99\x96\x10\xc0'
tRp44
sI45
g8
(g10
S'd\x9a\x90\xbd\xa5\x13\x10\xc0'
tRp45
ss(g4
g2
g2
S'Close Right'
p46
tp47
(dp48
I0
I0
sI20
I0
sI-45
I0
sI-20
I0
sI45
I0
ss(g4
g35
g4
g5
tp49
(dp50
I0
I0
sI20
I0
sI-45
I0
sI-20
I0
sI45
I0
ss(g2
g3
g16
g17
tp51
(dp52
I0
g8
(g10
S'Vo9y\xa2\x9d\x12@'
tRp53
sI20
F1
sI-45
F1.8
sI-20
g8
(g10
S'\xb9s(\x1a\xec\xeb\xf5?'
tRp54
sI45
g8
(g10
S'\xff\xe0\xc1\x17v\x9b\xff?'
tRp55
ss(g2
g4
g16
g46
tp56
(dp57
I0
I0
sI20
I0
sI-45
I0
sI-20
I0
sI45
I0
ss(g2
g3
g16
g24
tp58
(dp59
I0
g8
(g10
S'\x1e2\xbe\x97\x8f\xa8\xe3\xbf'
tRp60
sI20
g8
(g10
S'\x8f\xec\xb6\x03\x9c.\x00\xc0'
tRp61
sI-45
g8
(g10
S'\xb4\x1a\xb2p\xe9B\xf6\xbf'
tRp62
sI-20
g8
(g10
S'\x13\x94\x19\x90\xc7d\x04\xc0'
tRp63
sI45
g8
(g10
S'\xd8`Q\xa6(A\xf7\xbf'
tRp64
ss(g4
g3
g35
g46
tp65
(dp66
I0
I0
sI20
I0
sI-45
I0
sI-20
I0
sI45
I0
ss(g4
g16
g4
g32
tp67
(dp68
I0
I0
sI20
I0
sI-45
I0
sI-20
I0
sI45
I0
ss(g4
g2
g35
g38
tp69
(dp70
I0
I0
sI20
I0
sI-45
I0
sI-20
I0
sI45
I0
ss(g16
g16
g16
S'Right'
p71
tp72
(dp73
I0
g8
(g10
S'f@K\xca\xe0t\xff\xbf'
tRp74
sI20
g8
(g10
S'\x9fi\xbe\x1c\xc2\x15\x00\xc0'
tRp75
sI-45
g8
(g10
S'\t\xc1\xe8ED\xf3\xfb\xbf'
tRp76
sI-20
g8
(g10
S'\x08\xab\xeb>\xb8,\xfb\xbf'
tRp77
sI45
g8
(g10
S'\xb4\xd7\x1c\x16\xbcq\x01\xc0'
tRp78
ss(g4
g2
g4
g24
tp79
(dp80
I0
I0
sI20
I0
sI-45
I0
sI-20
I0
sI45
I0
ss(g4
g35
g2
g24
tp81
(dp82
I0
I0
sI20
I0
sI-45
I0
sI-20
I0
sI45
I0
ss(g2
g16
g35
g38
tp83
(dp84
I0
g8
(g10
S'\xd1l\xe3\xa4\xf1@\x10\xc0'
tRp85
sI20
g8
(g10
S'\xf84\x08\x03\xcf\xf1\x10\xc0'
tRp86
sI-45
g8
(g10
S'`\xc5\xf9\x91\x89\x0b\x10\xc0'
tRp87
sI-20
g8
(g10
S'W\xae\x81h4F\x10\xc0'
tRp88
sI45
g8
(g10
S'\x1b"\x99FK-\x10\xc0'
tRp89
ss(g4
g2
g2
S'Close Bottom'
p90
tp91
(dp92
I0
I0
sI20
I0
sI-45
I0
sI-20
I0
sI45
I0
ss(g4
g2
g2
g24
tp93
(dp94
I0
I0
sI20
I0
sI-45
I0
sI-20
I0
sI45
I0
ss(g2
g16
g3
g71
tp95
(dp96
I0
g8
(g10
S'n\x1e\xb5T\xf1\xb7\x11\xc0'
tRp97
sI20
g8
(g10
S'\xa1\xbd>\xb9\xcb\x14\x12\xc0'
tRp98
sI-45
g8
(g10
S'\xcaZ\xe4\x1e\xf4\x8e\x11\xc0'
tRp99
sI-20
g8
(g10
S'\xefe\xfd\xff%\x8b\x11\xc0'
tRp100
sI45
g8
(g10
S'A4\x8e62\xc7\x11\xc0'
tRp101
ss(g16
g3
g4
S'Tagged'
p102
tp103
(dp104
I0
I0
sI20
I0
sI-45
I0
sI-20
I0
sI45
I0
ss(g2
g16
g2
g90
tp105
(dp106
I0
I0
sI20
I0
sI-45
I0
sI-20
I0
sI45
I0
ss(g2
g2
g35
g71
tp107
(dp108
I0
g8
(g10
S'\x1a\xd1\x84\xb3V\x1e\r\xc0'
tRp109
sI20
g8
(g10
S'I?\x85\xacy\\\n\xc0'
tRp110
sI-45
g8
(g10
S'\x04\xce\x95\x92\xc5\x0b\x11\xc0'
tRp111
sI-20
g8
(g10
S'\x87\xe3&,fU\x0b\xc0'
tRp112
sI45
g8
(g10
S'\xd3\xc4\xbd\xa4XU\x10\xc0'
tRp113
ss(g16
g35
g2
g46
tp114
(dp115
I0
I0
sI20
I0
sI-45
I0
sI-20
I0
sI45
I0
ss(g16
g16
g35
g17
tp116
(dp117
I0
I0
sI20
I0
sI-45
I0
sI-20
I0
sI45
I0
ss(g4
g4
g16
g102
tp118
(dp119
I0
I0
sI20
I0
sI-45
I0
sI-20
I0
sI45
I0
ss(g16
g35
g2
g24
tp120
(dp121
I0
I0
sI20
I0
sI-45
I0
sI-20
I0
sI45
I0
ss(g16
g4
g3
g90
tp122
(dp123
I0
I0
sI20
g8
(g10
S'\x92\x9d\x0bB\xd2\x14\xde?'
tRp124
sI-45
I0
sI-20
I0
sI45
g8
(g10
S'\x08p\x01@yh\xd2\xbf'
tRp125
ss(g4
g2
g16
g71
tp126
(dp127
I0
I0
sI20
I0
sI-45
I0
sI-20
I0
sI45
I0
ss(g2
g35
g3
g71
tp128
(dp129
I0
g8
(g10
S'\xb2>\xb8%\x82\xb9\x10\xc0'
tRp130
sI20
g8
(g10
S'\xe1\x9e\xcd\r[\x16\x11\xc0'
tRp131
sI-45
g8
(g10
S'\x7feK\x84\x84@\x10\xc0'
tRp132
sI-20
g8
(g10
S';@\xb6\xc9\xdfD\x10\xc0'
tRp133
sI45
g8
(g10
S'R:$V\xbaE\x11\xc0'
tRp134
ss(g16
g4
g3
g102
tp135
(dp136
I0
I0
sI20
I0
sI-45
I0
sI-20
I0
sI45
I0
ss(g2
g3
g2
g90
tp137
(dp138
I0
g8
(g10
S'B\xc9\xb3\xfcvC\xe2\xbf'
tRp139
sI20
F-0.40000000000000002
sI-45
I0
sI-20
I0
sI45
I0
ss(g16
g3
g35
g90
tp140
(dp141
I0
I0
sI20
I0
sI-45
I0
sI-20
I0
sI45
I0
ss(g4
g3
g4
g32
tp142
(dp143
I0
I0
sI20
I0
sI-45
I0
sI-20
I0
sI45
I0
ss(g16
g16
g35
g38
tp144
(dp145
I0
I0
sI20
I0
sI-45
I0
sI-20
I0
sI45
I0
ss(g4
g3
g4
g46
tp146
(dp147
I0
I0
sI20
I0
sI-45
I0
sI-20
I0
sI45
I0
ss(g16
g4
g2
g5
tp148
(dp149
I0
I0
sI20
I0
sI-45
I0
sI-20
I0
sI45
I0
ss(g16
g16
g2
g90
tp150
(dp151
I0
I0
sI20
I0
sI-45
I0
sI-20
I0
sI45
I0
ss(g16
g4
g2
g90
tp152
(dp153
I0
I0
sI20
I0
sI-45
I0
sI-20
I0
sI45
I0
ss(g16
g35
g35
g38
tp154
(dp155
I0
g8
(g10
S'\xd7N\x87\x12J\x97\xce\xbf'
tRp156
sI20
I0
sI-45
I0
sI-20
I0
sI45
I0
ss(g2
g16
g35
g17
tp157
(dp158
I0
I0
sI20
I0
sI-45
I0
sI-20
I0
sI45
I0
ss(g2
g3
g35
g46
tp159
(dp160
I0
g8
(g10
S'\x07*\x81\x87\x7f\x7f\xad\xbf'
tRp161
sI20
g8
(g10
S'oVK0\xf6c\xc6?'
tRp162
sI-45
I0
sI-20
I0
sI45
g8
(g10
S'\xbf\xff\x98\xc6\x00v\xc0\xbf'
tRp163
ss(g2
g35
g35
g17
tp164
(dp165
I0
I0
sI20
I0
sI-45
I0
sI-20
I0
sI45
I0
ss(g16
g4
g3
g46
tp166
(dp167
I0
I0
sI20
I0
sI-45
I0
sI-20
I0
sI45
I0
ss(g16
g35
g4
g17
tp168
(dp169
I0
I0
sI20
I0
sI-45
I0
sI-20
I0
sI45
I0
ss(g2
g2
g16
g71
tp170
(dp171
I0
g8
(g10
S'\xfb\x88\xa3\x85\xf0\x0f\x11\xc0'
tRp172
sI20
g8
(g10
S'"\xc0\xf3\'\xca\xd4\x10\xc0'
tRp173
sI-45
g8
(g10
S';\xa7\xdc\xb2\xdc\x11\x11\xc0'
tRp174
sI-20
g8
(g10
S'Z?.\x1a\x93\xec\x0f\xc0'
tRp175
sI45
g8
(g10
S'`\x05\xe3Wg1\x11\xc0'
tRp176
ss(g2
g35
g2
g90
tp177
(dp178
I0
F0.80800000000000005
sI20
g8
(g10
S'\xe8!S\xde\xd9F\xcf\xbf'
tRp179
sI-45
F-0.40000000000000002
sI-20
g8
(g10
S'\x14c\x1eE\x85\xb9\xe6\xbf'
tRp180
sI45
g8
(g10
S'\x82G\xdf\x07\xe1\xd1\xe4\xbf'
tRp181
ss(g16
g4
g4
g71
tp182
(dp183
I0
g8
(g10
S'\x84y~\xb2\xee\xa0\xe7\xbf'
tRp184
sI20
g8
(g10
S'\xed\xad\x9e\x92Z\xcf\xc8\xbf'
tRp185
sI-45
I0
sI-20
g8
(g10
S'RT\xf0\x7f\x03\x0e\xe4?'
tRp186
sI45
g8
(g10
S'\xddL\x01\x7f\xc7\x8c\xdc\xbf'
tRp187
ss(g2
g16
g2
g102
tp188
(dp189
I0
I0
sI20
I0
sI-45
I0
sI-20
I0
sI45
I0
ss(g2
g4
g4
g24
tp190
(dp191
I0
I0
sI20
I0
sI-45
I0
sI-20
g8
(g10
S'\xfc\xd5eBoW\xca\xbf'
tRp192
sI45
g8
(g10
S'(4Na\x92\xd1\x97?'
tRp193
ss(g2
g3
g16
g38
tp194
(dp195
I0
g8
(g10
S'C\x0b\x0c_\xc9\r\x11\xc0'
tRp196
sI20
g8
(g10
S'\xbe\x0b\x99\r\xc9\xf9\x10\xc0'
tRp197
sI-45
g8
(g10
S'\x83\xc0\xfc \xed\x1d\x11\xc0'
tRp198
sI-20
g8
(g10
S'\xcbQ\x98\xe2\x94`\x11\xc0'
tRp199
sI45
g8
(g10
S'\x91\xb3t\x0cZ\xb3\r\xc0'
tRp200
ss(g16
g16
g2
g46
tp201
(dp202
I0
I0
sI20
I0
sI-45
g8
(g10
S'\x98\xc8\x8bx\xa2\xb9\xd2\xbf'
tRp203
sI-20
g8
(g10
S'(YF\xa5\xc3\xfd\xe7\xbf'
tRp204
sI45
g8
(g10
S'@\xba\xa35\x8d\x0e\xe5\xbf'
tRp205
ss(g16
g3
g4
g90
tp206
(dp207
I0
I0
sI20
g8
(g10
S'\xd4\x99?A\xb3p\xca?'
tRp208
sI-45
g8
(g10
S'Z\x1f\x80?\tm\xd5\xbf'
tRp209
sI-20
g8
(g10
S'\x8d\x12$\xc6jk\xdc\xbf'
tRp210
sI45
g8
(g10
S'\x1b_\xb3\x1c\xbc-\xe2\xbf'
tRp211
ss(g2
g4
g3
g38
tp212
(dp213
I0
g8
(g10
S'U\xcd\xe8\xa8\xc0)\t\xc0'
tRp214
sI20
g8
(g10
S'L<\xbd\x82\xae\xbe\x07\xc0'
tRp215
sI-45
g8
(g10
S'\xa1\x0e*:N[\xfa\xbf'
tRp216
sI-20
g8
(g10
S'`\x8c`Q\xdb\x11\xf7?'
tRp217
sI45
g8
(g10
S'\x02s0\xf6hA\xfc\xbf'
tRp218
ss(g16
g35
g16
g102
tp219
(dp220
I0
I0
sI20
I0
sI-45
I0
sI-20
I0
sI45
I0
ss(g2
g4
g4
g17
tp221
(dp222
I0
I0
sI20
I0
sI-45
I0
sI-20
I0
sI45
g8
(g10
S'\x0e\xf0\xd6_\xc5\x92\xf6?'
tRp223
ss(g4
g4
g3
g24
tp224
(dp225
I0
I0
sI20
I0
sI-45
I0
sI-20
I0
sI45
I0
ss(g2
g35
g2
g5
tp226
(dp227
I0
g8
(g10
S'\x80\x85\x14JV\x11\x0e\xc0'
tRp228
sI20
g8
(g10
S'0\xbc#\x11j\xb3\x0f\xc0'
tRp229
sI-45
g8
(g10
S'x\xc0H\xd5{\xfb\x0f\xc0'
tRp230
sI-20
g8
(g10
S'\xa2E\xdc\xd8-\x12\x10\xc0'
tRp231
sI45
g8
(g10
S'aZwOO\x06\x10\xc0'
tRp232
ss(g4
g2
g4
g90
tp233
(dp234
I0
I0
sI20
I0
sI-45
I0
sI-20
I0
sI45
I0
ss(g16
g35
g2
g32
tp235
(dp236
I0
I0
sI20
I0
sI-45
I0
sI-20
I0
sI45
I0
ss(g2
g35
g35
g5
tp237
(dp238
I0
g8
(g10
S')\xb5+\x90\xc5~\x0f\xc0'
tRp239
sI20
g8
(g10
S'\x86\x91=\xe0qS\x10\xc0'
tRp240
sI-45
g8
(g10
S'F\x0c\xa17"Q\x10\xc0'
tRp241
sI-20
g8
(g10
S'>5\x9c\x07;H\x10\xc0'
tRp242
sI45
g8
(g10
S'+\xc5j(W0\x10\xc0'
tRp243
ss(g16
g2
g2
g5
tp244
(dp245
I0
I0
sI20
I0
sI-45
I0
sI-20
I0
sI45
I0
ss(g16
g16
g2
g71
tp246
(dp247
I0
I0
sI20
I0
sI-45
I0
sI-20
I0
sI45
I0
ss(g4
g35
g3
g71
tp248
(dp249
I0
I0
sI20
I0
sI-45
I0
sI-20
I0
sI45
I0
ss(g4
g4
g35
g17
tp250
(dp251
I0
I0
sI20
I0
sI-45
I0
sI-20
I0
sI45
I0
ss(g16
g35
g4
g5
tp252
(dp253
I0
I0
sI20
I0
sI-45
I0
sI-20
I0
sI45
I0
ss(g16
g2
g2
g38
tp254
(dp255
I0
I0
sI20
I0
sI-45
I0
sI-20
I0
sI45
I0
ss(g4
g2
g35
g71
tp256
(dp257
I0
I0
sI20
I0
sI-45
I0
sI-20
I0
sI45
I0
ss(g16
g35
g16
g32
tp258
(dp259
I0
I0
sI20
I0
sI-45
I0
sI-20
I0
sI45
I0
ss(g4
g3
g3
g90
tp260
(dp261
I0
I0
sI20
I0
sI-45
I0
sI-20
I0
sI45
I0
ss(g16
g3
g4
g46
tp262
(dp263
I0
g8
(g10
S'\xfavU$\x00\xbc\xd0\xbf'
tRp264
sI20
g8
(g10
S'\x80\x85.\x8bE\xdb\xe5\xbf'
tRp265
sI-45
g8
(g10
S'\xab\xf8\x19\xa1jK\xe0?'
tRp266
sI-20
g8
(g10
S'\x82\x10^`<3\xe8\xbf'
tRp267
sI45
g8
(g10
S'\x93\xb3\xb6\xb2`\x00\t@'
tRp268
ss(g2
g2
g16
g46
tp269
(dp270
I0
I0
sI20
I0
sI-45
I0
sI-20
I0
sI45
I0
ss(g4
g35
g35
g32
tp271
(dp272
I0
I0
sI20
I0
sI-45
I0
sI-20
I0
sI45
I0
ss(g2
g4
g2
g46
tp273
(dp274
I0
g8
(g10
S'R\xf4a0U3\xc0\xbf'
tRp275
sI20
g8
(g10
S'\xa9`\x1fw\xf4r\xd2\xbf'
tRp276
sI-45
I0
sI-20
g8
(g10
S'\x18\xf8\xa7\xafMt\xf2?'
tRp277
sI45
g8
(g10
S'\x80\xdc\xe2\x12\x91\xb6\xa7\xbf'
tRp278
ss(g4
g2
g4
g102
tp279
(dp280
I0
I0
sI20
I0
sI-45
I0
sI-20
I0
sI45
I0
ss(g4
g35
g16
g102
tp281
(dp282
I0
I0
sI20
I0
sI-45
I0
sI-20
I0
sI45
I0
ss(g16
g4
g35
g71
tp283
(dp284
I0
I0
sI20
I0
sI-45
I0
sI-20
I0
sI45
I0
ss(g2
g35
g35
g38
tp285
(dp286
I0
g8
(g10
S"\n\xc0\x12w'\xc8\x0e\xc0"
tRp287
sI20
g8
(g10
S'\xa0\xa9\x81*z\x80\x0f\xc0'
tRp288
sI-45
g8
(g10
S'\x99\x90\x16\xb81\x14\x11\xc0'
tRp289
sI-20
g8
(g10
S'h <\x8bC\x90\x0e\xc0'
tRp290
sI45
g8
(g10
S"\xed@\xc1\xa4'\xc9\x0e\xc0"
tRp291
ss(g2
g35
g16
g17
tp292
(dp293
I0
I0
sI20
I0
sI-45
I0
sI-20
I0
sI45
I0
ss(g16
g2
g2
g17
tp294
(dp295
I0
I0
sI20
I0
sI-45
I0
sI-20
I0
sI45
I0
ss(g16
g16
g4
g32
tp296
(dp297
I0
I0
sI20
I0
sI-45
I0
sI-20
I0
sI45
I0
ss(g4
g35
g4
g38
tp298
(dp299
I0
I0
sI20
I0
sI-45
I0
sI-20
I0
sI45
I0
ss(g4
g4
g2
g46
tp300
(dp301
I0
I0
sI20
I0
sI-45
I0
sI-20
I0
sI45
I0
ss(g4
g16
g16
g32
tp302
(dp303
I0
I0
sI20
I0
sI-45
I0
sI-20
I0
sI45
I0
ss(g4
g3
g35
g17
tp304
(dp305
I0
I0
sI20
I0
sI-45
I0
sI-20
I0
sI45
I0
ss(g16
g4
g4
g46
tp306
(dp307
I0
I0
sI20
I0
sI-45
I0
sI-20
I0
sI45
I0
ss(g4
g16
g35
g46
tp308
(dp309
I0
I0
sI20
I0
sI-45
I0
sI-20
I0
sI45
I0
ss(g2
g3
g4
g102
tp310
(dp311
I0
I0
sI20
I0
sI-45
I0
sI-20
I0
sI45
I0
ss(g2
g3
g2
g24
tp312
(dp313
I0
g8
(g10
S'\xfc\xb4\xa6\xfa$\x94\xe5?'
tRp314
sI20
g8
(g10
S'\xcbi\xbc\x16\xfb\xff\xf9\xbf'
tRp315
sI-45
g8
(g10
S'\x86\x80\x91\xbd\xd6\xa1\xfc\xbf'
tRp316
sI-20
g8
(g10
S'\x93\xb3\xb7\xbdl;\xfe\xbf'
tRp317
sI45
g8
(g10
S'\x0b\xf1o_\xde\x04\x00\xc0'
tRp318
ss(g2
g35
g2
g24
tp319
(dp320
I0
g8
(g10
S'\x90\xef\x11\x9e\x1d\x8a\xd4\xbf'
tRp321
sI20
g8
(g10
S'\xc7\xe2\xbe\xb8\xc5\x7f\xcf\xbf'
tRp322
sI-45
g8
(g10
S'\x9c\xf9l\x08(\xbc\xeb\xbf'
tRp323
sI-20
g8
(g10
S'(\\\x8e\\BO\xd1\xbf'
tRp324
sI45
g8
(g10
S'j\xac\x91\x1e\xf6\xf0\xd1\xbf'
tRp325
ss(g16
g16
g4
g102
tp326
(dp327
I0
I0
sI20
I0
sI-45
I0
sI-20
I0
sI45
I0
ss(g16
g2
g35
g38
tp328
(dp329
I0
I0
sI20
I0
sI-45
I0
sI-20
I0
sI45
I0
ss(g4
g2
g4
g71
tp330
(dp331
I0
I0
sI20
I0
sI-45
I0
sI-20
I0
sI45
I0
ss(g4
g4
g3
g71
tp332
(dp333
I0
I0
sI20
I0
sI-45
I0
sI-20
I0
sI45
I0
ss(g4
g4
g2
g90
tp334
(dp335
I0
I0
sI20
I0
sI-45
I0
sI-20
I0
sI45
I0
ss(g2
g16
g16
g32
tp336
(dp337
I0
I0
sI20
I0
sI-45
I0
sI-20
I0
sI45
I0
ss(g16
g2
g35
g5
tp338
(dp339
I0
I0
sI20
I0
sI-45
I0
sI-20
I0
sI45
I0
ss(g16
g4
g4
g5
tp340
(dp341
I0
I0
sI20
I0
sI-45
I0
sI-20
I0
sI45
I0
ss(g16
g35
g35
g32
tp342
(dp343
I0
I0
sI20
I0
sI-45
I0
sI-20
I0
sI45
I0
ss(g16
g4
g4
g90
tp344
(dp345
I0
I0
sI20
I0
sI-45
I0
sI-20
g8
(g10
S'\xad\x82\xa4\xa0\xba{\xc9\xbf'
tRp346
sI45
I0
ss(g16
g2
g4
g90
tp347
(dp348
I0
I0
sI20
I0
sI-45
I0
sI-20
I0
sI45
g8
(g10
S'\xfa\xe1t\x0b\x0c\x91\xdd?'
tRp349
ss(g16
g4
g4
g38
tp350
(dp351
I0
g8
(g10
S'\x8f\xdf\xe6\xa2z\x17\xd2\xbf'
tRp352
sI20
g8
(g10
S'\x8e\xd1\x84f\x1c\x18\xd6\xbf'
tRp353
sI-45
g8
(g10
S'\x92\xf9\xc9\xef\xfeu\xd8\xbf'
tRp354
sI-20
g8
(g10
S'\xb5D\xf3\x11Zh\xd7\xbf'
tRp355
sI45
g8
(g10
S'\xfa\x83\x00\x07\x8b\xdd\xcb\xbf'
tRp356
ss(g2
g35
g3
g46
tp357
(dp358
I0
I0
sI20
I0
sI-45
I0
sI-20
I0
sI45
I0
ss(g4
g35
g16
g32
tp359
(dp360
I0
I0
sI20
I0
sI-45
I0
sI-20
I0
sI45
I0
ss(g16
g3
g16
g90
tp361
(dp362
I0
I0
sI20
I0
sI-45
I0
sI-20
I0
sI45
I0
ss(g16
g16
g16
g46
tp363
(dp364
I0
I0
sI20
I0
sI-45
I0
sI-20
I0
sI45
I0
ss(g16
g16
g35
g24
tp365
(dp366
I0
I0
sI20
I0
sI-45
I0
sI-20
I0
sI45
I0
ss(g4
g2
g3
g102
tp367
(dp368
I0
I0
sI20
I0
sI-45
I0
sI-20
I0
sI45
I0
ss(g4
g3
g2
g24
tp369
(dp370
I0
I0
sI20
I0
sI-45
I0
sI-20
I0
sI45
I0
ss(g2
g2
g3
g17
tp371
(dp372
I0
g8
(g10
S'\xa9\xc1?\xf6\xd2\xb9\xd2\xbf'
tRp373
sI20
g8
(g10
S'\xfc\xd3\xb5\xb5%O\x03@'
tRp374
sI-45
F2.6000000000000001
sI-20
I0
sI45
I0
ss(g2
g4
g2
g71
tp375
(dp376
I0
g8
(g10
S'\x98L7\xf9\x9b\xf0\r\xc0'
tRp377
sI20
g8
(g10
S'\xd1\x9e\x94F\x19\xd8\x0c\xc0'
tRp378
sI-45
g8
(g10
S'~\xb4\\s\xe4;\x0e\xc0'
tRp379
sI-20
g8
(g10
S'\xc9\xea\x9e\x13{\x92\r\xc0'
tRp380
sI45
g8
(g10
S'?DUa\x18\xc9\r\xc0'
tRp381
ss(g4
g4
g16
g17
tp382
(dp383
I0
I0
sI20
I0
sI-45
I0
sI-20
I0
sI45
I0
ss(g2
g4
g2
g5
tp384
(dp385
I0
g8
(g10
S'\xb5\x84@A\xe1\xf3\x0e\xc0'
tRp386
sI20
g8
(g10
S'#\x85\x17}D[\x0e\xc0'
tRp387
sI-45
g8
(g10
S'\x84\x9f</\x04d\x0e\xc0'
tRp388
sI-20
g8
(g10
S'\x96\x9d4#E9\x0f\xc0'
tRp389
sI45
g8
(g10
S'\xfd\xed\xacC,\xa2\x0e\xc0'
tRp390
ss(g4
g35
g2
g32
tp391
(dp392
I0
I0
sI20
I0
sI-45
I0
sI-20
I0
sI45
I0
ss(g4
g35
g2
g5
tp393
(dp394
I0
I0
sI20
I0
sI-45
I0
sI-20
I0
sI45
I0
ss(g2
g2
g3
g71
tp395
(dp396
I0
g8
(g10
S"\x15\xc6\xcdq'\xdb\x10\xc0"
tRp397
sI20
g8
(g10
S'|\x14M\x83\xd1\t\x0f\xc0'
tRp398
sI-45
g8
(g10
S'G\x1e\x96);\x98\x11\xc0'
tRp399
sI-20
g8
(g10
S'\xee;m:J\xa0\x11\xc0'
tRp400
sI45
g8
(g10
S'.\xd0\x8b(Pc\x11\xc0'
tRp401
ss(g4
g3
g2
g71
tp402
(dp403
I0
I0
sI20
I0
sI-45
I0
sI-20
I0
sI45
I0
ss(g16
g2
g4
g46
tp404
(dp405
I0
I0
sI20
I0
sI-45
I0
sI-20
I0
sI45
g8
(g10
S'\xd6\xb4\xf1\xf2_W\xd2\xbf'
tRp406
ss(g16
g35
g3
g17
tp407
(dp408
I0
I0
sI20
I0
sI-45
I0
sI-20
I0
sI45
I0
ss(g2
g35
g35
g90
tp409
(dp410
I0
F0.68799999999999994
sI20
I0
sI-45
I0
sI-20
I0
sI45
I0
ss(g2
g35
g3
g90
tp411
(dp412
I0
I0
sI20
I0
sI-45
I0
sI-20
I0
sI45
F1
ss(g2
g35
g4
g102
tp413
(dp414
I0
I0
sI20
I0
sI-45
I0
sI-20
I0
sI45
I0
ss(g16
g35
g2
g38
tp415
(dp416
I0
I0
sI20
I0
sI-45
I0
sI-20
I0
sI45
I0
ss(g16
g3
g35
g71
tp417
(dp418
I0
g8
(g10
S'\xb1\xe2TS\x88\x90\xfa\xbf'
tRp419
sI20
g8
(g10
S'`*%\x9c\xd1!\xf7\xbf'
tRp420
sI-45
g8
(g10
S'\x92\x80(A\xe5\x93\xfa\xbf'
tRp421
sI-20
g8
(g10
S'\x83TVj\x98\xfe\xf7\xbf'
tRp422
sI45
g8
(g10
S'\x9f\x18\xef\x9d\x19\xb4\xf2\xbf'
tRp423
ss(g16
g16
g2
g38
tp424
(dp425
I0
I0
sI20
I0
sI-45
I0
sI-20
I0
sI45
I0
ss(g4
g3
g16
g32
tp426
(dp427
I0
I0
sI20
I0
sI-45
I0
sI-20
I0
sI45
I0
ss(g2
g3
g3
g102
tp428
(dp429
I0
I0
sI20
I0
sI-45
F1
sI-20
I0
sI45
I0
ss(g16
g35
g35
g102
tp430
(dp431
I0
I0
sI20
I0
sI-45
I0
sI-20
I0
sI45
I0
ss(g16
g4
g16
g32
tp432
(dp433
I0
I0
sI20
g8
(g10
S'D\x84:\x0e(r\xc1\xbf'
tRp434
sI-45
I0
sI-20
I0
sI45
g8
(g10
S'\xf3\xf0\x17+k\xc3\xd2\xbf'
tRp435
ss(g16
g2
g3
g71
tp436
(dp437
I0
g8
(g10
S'\xb2\xef\xd4\xdf-W\x0b\xc0'
tRp438
sI20
g8
(g10
S'\x88\x8d.\xa9\xa89\n\xc0'
tRp439
sI-45
g8
(g10
S'\xb8K8\xdb%\x99\x06\xc0'
tRp440
sI-20
g8
(g10
S'q\x17\r\x9c\x17\x17\xf4\xbf'
tRp441
sI45
g8
(g10
S'V!\xfa\xaa\x83o\t\xc0'
tRp442
ss(g2
g16
g16
g102
tp443
(dp444
I0
I0
sI20
I0
sI-45
I0
sI-20
I0
sI45
I0
ss(g16
g3
g2
g38
tp445
(dp446
I0
g8
(g10
S'2\x982+\xda3\x08\xc0'
tRp447
sI20
g8
(g10
S'Q\x87\xcf&\xa2\xab\xf3\xbf'
tRp448
sI-45
g8
(g10
S'W\xb6\x91\x9b\xb4\x03\x01\xc0'
tRp449
sI-20
g8
(g10
S'\xcb\xea\xf0DU\xe7\x02\xc0'
tRp450
sI45
g8
(g10
S'\xf2\x1e"\xf0\x96\xf1\x07\xc0'
tRp451
ss(g4
g16
g16
g5
tp452
(dp453
I0
I0
sI20
I0
sI-45
I0
sI-20
I0
sI45
I0
ss(g4
g35
g2
g17
tp454
(dp455
I0
I0
sI20
I0
sI-45
I0
sI-20
I0
sI45
I0
ss(g2
g3
g2
g71
tp456
(dp457
I0
g8
(g10
S'5\x18\xf0P\xa9f\x08\xc0'
tRp458
sI20
g8
(g10
S'\xd0\xf3\x83v\x18\x89\x08\xc0'
tRp459
sI-45
g8
(g10
S'\xb8F\x18\xae\xdf\xac\x05\xc0'
tRp460
sI-20
g8
(g10
S'H\n\x1bRdH\xef\xbf'
tRp461
sI45
g8
(g10
S'~\xa0\xa1y\xa4\xca\x03\xc0'
tRp462
ss(g4
g4
g16
g32
tp463
(dp464
I0
I0
sI20
I0
sI-45
I0
sI-20
I0
sI45
I0
ss(g16
g35
g16
g90
tp465
(dp466
I0
I0
sI20
I0
sI-45
I0
sI-20
I0
sI45
I0
ss(g16
g35
g3
g5
tp467
(dp468
I0
g8
(g10
S'\xc1\x7f\xcb>\xaf\xc8\xf1\xbf'
tRp469
sI20
g8
(g10
S'\x1b\x0f\x1aH\xf1Q\xf2\xbf'
tRp470
sI-45
g8
(g10
S'\x18\x1a\x1c96\x84\xf3\xbf'
tRp471
sI-20
g8
(g10
S'\xf8\x9a\xbf\x1d\xe9[\xf5\xbf'
tRp472
sI45
g8
(g10
S'\xfa\xf9\x1f\xbe\xab\xf1\xf5\xbf'
tRp473
ss(g2
g2
g3
g32
tp474
(dp475
I0
g8
(g10
S'K/\xb2\xcdc\xd3\xf1\xbf'
tRp476
sI20
g8
(g10
S'\x14R\xc3\x87\xbb\xed\xef\xbf'
tRp477
sI-45
g8
(g10
S'\xd6\x9a\x93\xd2\x1f\x1f\xe2\xbf'
tRp478
sI-20
g8
(g10
S'\xfe~N\xa6\xb9x\xd5\xbf'
tRp479
sI45
g8
(g10
S'\x87\xc6\x98\x91Zb\x10@'
tRp480
ss(g16
g16
g2
g24
tp481
(dp482
I0
I0
sI20
I0
sI-45
I0
sI-20
I0
sI45
I0
ss(g16
g2
g35
g102
tp483
(dp484
I0
I0
sI20
I0
sI-45
I0
sI-20
I0
sI45
I0
ss(g4
g2
g16
g17
tp485
(dp486
I0
I0
sI20
I0
sI-45
I0
sI-20
I0
sI45
I0
ss(g4
g4
g35
g102
tp487
(dp488
I0
I0
sI20
I0
sI-45
I0
sI-20
I0
sI45
I0
ss(g2
g4
g35
g32
tp489
(dp490
I0
I0
sI20
g8
(g10
S'L/]\x1a#\x8e\xbc\xbf'
tRp491
sI-45
I0
sI-20
I0
sI45
g8
(g10
S'\xd8<Pu\x14\xe9\xe4\xbf'
tRp492
ss(g4
g35
g35
g71
tp493
(dp494
I0
I0
sI20
I0
sI-45
I0
sI-20
I0
sI45
I0
ss(g4
g16
g2
g38
tp495
(dp496
I0
I0
sI20
I0
sI-45
I0
sI-20
I0
sI45
I0
ss(g4
g4
g4
g90
tp497
(dp498
I0
I0
sI20
I0
sI-45
I0
sI-20
I0
sI45
I0
ss(g4
g3
g2
g32
tp499
(dp500
I0
I0
sI20
I0
sI-45
I0
sI-20
I0
sI45
I0
ss(g16
g35
g35
g46
tp501
(dp502
I0
I0
sI20
I0
sI-45
I0
sI-20
I0
sI45
I0
ss(g2
g2
g4
g24
tp503
(dp504
I0
I0
sI20
I0
sI-45
I0
sI-20
I0
sI45
g8
(g10
S'\xc0\xf9\x98\xf2}\xcb\xb0\xbf'
tRp505
ss(g16
g4
g16
g102
tp506
(dp507
I0
I0
sI20
I0
sI-45
I0
sI-20
I0
sI45
I0
ss(g4
g35
g35
g38
tp508
(dp509
I0
I0
sI20
I0
sI-45
I0
sI-20
I0
sI45
I0
ss(g2
g2
g4
g5
tp510
(dp511
I0
g8
(g10
S'\xc0\xe9#\r/\xdb\x0e\xc0'
tRp512
sI20
g8
(g10
S'5\\\xf1\x8b\xc9\xc5\r\xc0'
tRp513
sI-45
g8
(g10
S'.8mFbg\x10\xc0'
tRp514
sI-20
g8
(g10
S':\\S\x02\x11\x0e\x0f\xc0'
tRp515
sI45
g8
(g10
S'\x96\xb3%\n\xbe\x89\x0e\xc0'
tRp516
ss(g16
g16
g16
g24
tp517
(dp518
I0
I0
sI20
I0
sI-45
g8
(g10
S'\xf5ZO\xbaD\x92\xd2\xbf'
tRp519
sI-20
I0
sI45
I0
ss(g2
g35
g16
g102
tp520
(dp521
I0
I0
sI20
I0
sI-45
I0
sI-20
I0
sI45
I0
ss(g2
g35
g4
g32
tp522
(dp523
I0
I0
sI20
I0
sI-45
I0
sI-20
I0
sI45
g8
(g10
S'\r!\xe6\xfd\xb6\xf6\xcb\xbf'
tRp524
ss(g2
g4
g16
g90
tp525
(dp526
I0
I0
sI20
I0
sI-45
I0
sI-20
I0
sI45
I0
ss(g4
g16
g3
g17
tp527
(dp528
I0
I0
sI20
I0
sI-45
I0
sI-20
I0
sI45
I0
ss(g16
g3
g2
g24
tp529
(dp530
I0
g8
(g10
S'\xcc\xf39\xb8\x1c\xf7\xc6?'
tRp531
sI20
g8
(g10
S"\x10'\xf0UI\x03\xb0?"
tRp532
sI-45
g8
(g10
S'=\xb1L\xc6CT\xd5\xbf'
tRp533
sI-20
g8
(g10
S'\xe8\x98\x19)\x18O\x92\xbf'
tRp534
sI45
g8
(g10
S'\xd2\t\x86*\x1e\x01\xd0?'
tRp535
ss(g16
g4
g4
g32
tp536
(dp537
I0
I0
sI20
I0
sI-45
I0
sI-20
I0
sI45
I0
ss(g16
g4
g35
g32
tp538
(dp539
I0
I0
sI20
I0
sI-45
I0
sI-20
I0
sI45
I0
ss(g2
g2
g4
g90
tp540
(dp541
I0
I0
sI20
g8
(g10
S'8m*-\x93\xfb\xea\xbf'
tRp542
sI-45
I0
sI-20
I0
sI45
g8
(g10
S'\xb7A\x91\xb8*\xc5\xbc\xbf'
tRp543
ss(g16
g3
g3
g17
tp544
(dp545
I0
I0
sI20
I0
sI-45
I0
sI-20
I0
sI45
I0
ss(g4
g35
g4
g71
tp546
(dp547
I0
I0
sI20
I0
sI-45
I0
sI-20
I0
sI45
I0
ss(g16
g16
g4
g17
tp548
(dp549
I0
I0
sI20
I0
sI-45
I0
sI-20
I0
sI45
I0
ss(g4
g16
g16
g24
tp550
(dp551
I0
I0
sI20
I0
sI-45
I0
sI-20
I0
sI45
I0
ss(g2
g2
g35
g17
tp552
(dp553
I0
I0
sI20
I0
sI-45
I0
sI-20
I0
sI45
I0
ss(g16
g16
g35
g90
tp554
(dp555
I0
I0
sI20
I0
sI-45
I0
sI-20
I0
sI45
I0
ss(g4
g4
g4
g17
tp556
(dp557
I0
I0
sI20
I0
sI-45
I0
sI-20
I0
sI45
I0
ss(g16
g35
g4
g102
tp558
(dp559
I0
I0
sI20
I0
sI-45
I0
sI-20
I0
sI45
I0
ss(g16
g16
g4
g24
tp560
(dp561
I0
I0
sI20
I0
sI-45
I0
sI-20
I0
sI45
I0
ss(g4
g35
g3
g17
tp562
(dp563
I0
I0
sI20
I0
sI-45
I0
sI-20
I0
sI45
I0
ss(g4
g4
g4
g71
tp564
(dp565
I0
I0
sI20
I0
sI-45
I0
sI-20
I0
sI45
I0
ss(g16
g2
g16
g24
tp566
(dp567
I0
I0
sI20
I0
sI-45
I0
sI-20
I0
sI45
I0
ss(g4
g35
g3
g32
tp568
(dp569
I0
I0
sI20
I0
sI-45
I0
sI-20
I0
sI45
I0
ss(g2
g2
g16
g102
tp570
(dp571
I0
I0
sI20
I0
sI-45
I0
sI-20
I0
sI45
I0
ss(g4
g35
g35
g90
tp572
(dp573
I0
I0
sI20
I0
sI-45
I0
sI-20
I0
sI45
I0
ss(g2
g3
g4
g38
tp574
(dp575
I0
g8
(g10
S':\xa3\x8df\xeca\x11\xc0'
tRp576
sI20
g8
(g10
S'\x08Be\x9b\xb6\x90\x11\xc0'
tRp577
sI-45
g8
(g10
S'ki\x0e\x06\x9c!\x08\xc0'
tRp578
sI-20
g8
(g10
S'\xa0P\xf2d7|\x11\xc0'
tRp579
sI45
g8
(g10
S'\xd9\xe9?A\xc5,\x12\xc0'
tRp580
ss(g16
g35
g16
g17
tp581
(dp582
I0
I0
sI20
I0
sI-45
I0
sI-20
I0
sI45
I0
ss(g4
g35
g35
g24
tp583
(dp584
I0
I0
sI20
I0
sI-45
I0
sI-20
I0
sI45
I0
ss(g2
g35
g4
g46
tp585
(dp586
I0
F1
sI20
g8
(g10
S'\xc0\xdb\xb8\xa3cN\xc6\xbf'
tRp587
sI-45
I0
sI-20
I0
sI45
g8
(g10
S'\x18s\xdc\xe9\xce\xc8\xc9\xbf'
tRp588
ss(g16
g4
g35
g17
tp589
(dp590
I0
I0
sI20
I0
sI-45
I0
sI-20
I0
sI45
I0
ss(g2
g2
g2
g32
tp591
(dp592
I0
g8
(g10
S'H\xd0\xfd\x1c\xad`\xe5?'
tRp593
sI20
g8
(g10
S'r\x16\xab_\x97\xfc\xe2\xbf'
tRp594
sI-45
g8
(g10
S'\xfc\xafO\xd0\xf9\xa2\xea\xbf'
tRp595
sI-20
g8
(g10
S'\xf5\xde\xa4(9n\xe6\xbf'
tRp596
sI45
g8
(g10
S'\x12o\x8d\xee\x008\xf7\xbf'
tRp597
ss(g16
g2
g2
g71
tp598
(dp599
I0
I0
sI20
I0
sI-45
I0
sI-20
I0
sI45
I0
ss(g4
g3
g16
g71
tp600
(dp601
I0
I0
sI20
I0
sI-45
I0
sI-20
I0
sI45
I0
ss(g2
g4
g35
g5
tp602
(dp603
I0
g8
(g10
S'\xd6\xe8\x97\xe9\x16\xfe\r\xc0'
tRp604
sI20
g8
(g10
S'\x9aS\x1cH\xc3%\x10\xc0'
tRp605
sI-45
g8
(g10
S'\xab\xb9\xc1\xf2\x86\xd1\x0e\xc0'
tRp606
sI-20
g8
(g10
S'\x1a\xc8f\xe2L\x99\x0e\xc0'
tRp607
sI45
g8
(g10
S'\xda\xe5\r\xcf\xd21\x0e\xc0'
tRp608
ss(g16
g4
g16
g90
tp609
(dp610
I0
I0
sI20
I0
sI-45
I0
sI-20
I0
sI45
I0
ss(g16
g2
g16
g46
tp611
(dp612
I0
I0
sI20
I0
sI-45
I0
sI-20
I0
sI45
I0
ss(g16
g35
g3
g102
tp613
(dp614
I0
I0
sI20
I0
sI-45
I0
sI-20
I0
sI45
I0
ss(g2
g35
g4
g17
tp615
(dp616
I0
F1
sI20
I0
sI-45
I0
sI-20
I0
sI45
I0
ss(g16
g2
g35
g90
tp617
(dp618
I0
I0
sI20
I0
sI-45
I0
sI-20
I0
sI45
I0
ss(g2
g35
g4
g24
tp619
(dp620
I0
g8
(g10
S'jR=f\xe6\x91\xcb\xbf'
tRp621
sI20
g8
(g10
S'">\x1epX\xa6\xcb\xbf'
tRp622
sI-45
I0
sI-20
I0
sI45
g8
(g10
S'\x80\n\xbb\xf0\x0c\xc8}\xbf'
tRp623
ss(g16
g2
g4
g5
tp624
(dp625
I0
I0
sI20
g8
(g10
S'Q\xb2\xf3`\x8b=\xe6\xbf'
tRp626
sI-45
I0
sI-20
I0
sI45
I0
ss(g16
g4
g3
g38
tp627
(dp628
I0
g8
(g10
S'lw\x0c\x19U \xeb\xbf'
tRp629
sI20
g8
(g10
S'<\x9b[\xbb\xd1\xf6\xe0\xbf'
tRp630
sI-45
g8
(g10
S'\xb4\xe2\xcf\xd7\xfe\xf4\xdf\xbf'
tRp631
sI-20
g8
(g10
S' *\x14G\x14?\xe6?'
tRp632
sI45
g8
(g10
S'\x95+\xd3\\ Y\xf1\xbf'
tRp633
ss(g2
g4
g2
g32
tp634
(dp635
I0
I0
sI20
g8
(g10
S'\xc0\xee\xc0zQ\xe4\x97\xbf'
tRp636
sI-45
g8
(g10
S'\xc2\xa7\x1b]\xa6\xc6\xd2\xbf'
tRp637
sI-20
I0
sI45
g8
(g10
S'\xce\xd0;\xa1\x8cR\xe0\xbf'
tRp638
ss(g16
g35
g4
g32
tp639
(dp640
I0
I0
sI20
I0
sI-45
I0
sI-20
I0
sI45
I0
ss(g16
g3
g2
g102
tp641
(dp642
I0
I0
sI20
I0
sI-45
I0
sI-20
I0
sI45
F1
ss(g4
g16
g2
g32
tp643
(dp644
I0
I0
sI20
I0
sI-45
I0
sI-20
I0
sI45
I0
ss(g16
g4
g16
g46
tp645
(dp646
I0
I0
sI20
I0
sI-45
I0
sI-20
I0
sI45
I0
ss(g2
g4
g35
g17
tp647
(dp648
I0
I0
sI20
I0
sI-45
I0
sI-20
I0
sI45
I0
ss(g2
g4
g4
g90
tp649
(dp650
I0
I0
sI20
I0
sI-45
I0
sI-20
I0
sI45
I0
ss(g2
g4
g3
g46
tp651
(dp652
I0
I0
sI20
I0
sI-45
I0
sI-20
I0
sI45
I0
ss(g2
g4
g35
g24
tp653
(dp654
I0
g8
(g10
S'x\xd6\xd6\xc0\xaaw\xd2\xbf'
tRp655
sI20
g8
(g10
S'\x0c)\x1f\x83\x02l\xe9\xbf'
tRp656
sI-45
I0
sI-20
I0
sI45
g8
(g10
S'\xad\n\xb1qq\xe9\xdf\xbf'
tRp657
ss(g4
g3
g4
g17
tp658
(dp659
I0
I0
sI20
I0
sI-45
I0
sI-20
I0
sI45
I0
ss(g16
g3
g35
g38
tp660
(dp661
I0
g8
(g10
S'\xf4G\x8d\x8a\xe3\xaa\xfa\xbf'
tRp662
sI20
g8
(g10
S'x\x87c\xee\xb1\x92\xf5\xbf'
tRp663
sI-45
g8
(g10
S'\x7f\x1d20\x7f\xc5\xfa\xbf'
tRp664
sI-20
g8
(g10
S'\xbe:\xb5\xb3Rm\xf4\xbf'
tRp665
sI45
g8
(g10
S'\x8a\xff\x830\xcdO\xf3\xbf'
tRp666
ss(g2
g16
g3
g90
tp667
(dp668
I0
I0
sI20
I0
sI-45
I0
sI-20
I0
sI45
I0
ss(g16
g2
g2
g102
tp669
(dp670
I0
I0
sI20
I0
sI-45
I0
sI-20
I0
sI45
I0
ss(g16
g4
g16
g17
tp671
(dp672
I0
I0
sI20
I0
sI-45
I0
sI-20
I0
sI45
I0
ss(g16
g4
g16
g24
tp673
(dp674
I0
I0
sI20
g8
(g10
S'\xc4\x7f\xf5|Pu\xd0?'
tRp675
sI-45
I0
sI-20
I0
sI45
I0
ss(g4
g4
g16
g71
tp676
(dp677
I0
I0
sI20
I0
sI-45
I0
sI-20
I0
sI45
I0
ss(g4
g16
g4
g90
tp678
(dp679
I0
I0
sI20
I0
sI-45
I0
sI-20
I0
sI45
I0
ss(g2
g16
g4
g71
tp680
(dp681
I0
g8
(g10
S'$)\x90\x9ah\xf6\x0c\xc0'
tRp682
sI20
g8
(g10
S'\xbea\xb6\xe5\xcc\x89\r\xc0'
tRp683
sI-45
g8
(g10
S'h\\\xe1\xd5-\xda\r\xc0'
tRp684
sI-20
g8
(g10
S'7\x9d\x04*\x06\xe1\x0c\xc0'
tRp685
sI45
g8
(g10
S'tE\x9chT\x9a\r\xc0'
tRp686
ss(g4
g2
g3
g5
tp687
(dp688
I0
I0
sI20
I0
sI-45
I0
sI-20
I0
sI45
I0
ss(g4
g16
g35
g5
tp689
(dp690
I0
I0
sI20
I0
sI-45
I0
sI-20
I0
sI45
I0
ss(g16
g3
g35
g17
tp691
(dp692
I0
I0
sI20
I0
sI-45
I0
sI-20
I0
sI45
I0
ss(g2
g16
g3
g5
tp693
(dp694
I0
g8
(g10
S'v\xc9\xc5J\xf1\xf2\x11\xc0'
tRp695
sI20
g8
(g10
S'*L\xa5\xdf\xd1\xd2\x11\xc0'
tRp696
sI-45
g8
(g10
S'@\t\xc0_\xc4\xc2\x11\xc0'
tRp697
sI-20
g8
(g10
S'Yg\x8egR\xc4\x11\xc0'
tRp698
sI45
g8
(g10
S'\x98b\x87b\xba\xd0\x11\xc0'
tRp699
ss(g4
g16
g4
g17
tp700
(dp701
I0
I0
sI20
I0
sI-45
I0
sI-20
I0
sI45
I0
ss(g4
g2
g35
g102
tp702
(dp703
I0
I0
sI20
I0
sI-45
I0
sI-20
I0
sI45
I0
ss(g2
g3
g35
g102
tp704
(dp705
I0
I0
sI20
I0
sI-45
I0
sI-20
I0
sI45
I0
ss(g4
g3
g16
g5
tp706
(dp707
I0
I0
sI20
I0
sI-45
I0
sI-20
I0
sI45
I0
ss(g16
g2
g3
g17
tp708
(dp709
I0
I0
sI20
I0
sI-45
I0
sI-20
I0
sI45
I0
ss(g16
g16
g4
g90
tp710
(dp711
I0
I0
sI20
I0
sI-45
I0
sI-20
I0
sI45
I0
ss(g4
g35
g16
g71
tp712
(dp713
I0
I0
sI20
I0
sI-45
I0
sI-20
I0
sI45
I0
ss(g4
g35
g2
g71
tp714
(dp715
I0
I0
sI20
I0
sI-45
I0
sI-20
I0
sI45
I0
ss(g4
g3
g3
g38
tp716
(dp717
I0
I0
sI20
I0
sI-45
I0
sI-20
I0
sI45
I0
ss(g16
g35
g16
g46
tp718
(dp719
I0
I0
sI20
I0
sI-45
I0
sI-20
I0
sI45
I0
ss(g4
g2
g4
g32
tp720
(dp721
I0
I0
sI20
I0
sI-45
I0
sI-20
I0
sI45
I0
ss(g2
g16
g2
g46
tp722
(dp723
I0
I0
sI20
I0
sI-45
I0
sI-20
I0
sI45
F1
ss(g16
g2
g4
g102
tp724
(dp725
I0
I0
sI20
I0
sI-45
I0
sI-20
I0
sI45
I0
ss(g16
g4
g35
g5
tp726
(dp727
I0
I0
sI20
I0
sI-45
I0
sI-20
I0
sI45
I0
ss(g16
g16
g16
g38
tp728
(dp729
I0
g8
(g10
S':\xf50\\J\xab\xf5\xbf'
tRp730
sI20
g8
(g10
S'h\x9d\xc5:\x8d\x0c\x00\xc0'
tRp731
sI-45
g8
(g10
S'cC\xdd\xdf\x7fh\xfc\xbf'
tRp732
sI-20
g8
(g10
S'\x07\xe2\x1f\x8e\xaaG\x01\xc0'
tRp733
sI45
g8
(g10
S':\x87\xbc\x05\x06\xac\xfc\xbf'
tRp734
ss(g4
g2
g4
g17
tp735
(dp736
I0
I0
sI20
I0
sI-45
I0
sI-20
I0
sI45
I0
ss(g2
g3
g4
g71
tp737
(dp738
I0
g8
(g10
S'\nN\x90\xbb\xa9\xce\x01\xc0'
tRp739
sI20
g8
(g10
S'\xaa%\x88,W\xf5\x01\xc0'
tRp740
sI-45
g8
(g10
S"\xa0\x9c\xd6P\xe1'\xdb\xbf"
tRp741
sI-20
g8
(g10
S'\x13\xd9S\xe7o\xe6\x01\xc0'
tRp742
sI45
g8
(g10
S'\xd6\x87\x1ds\x81J\x02\xc0'
tRp743
ss(g16
g16
g4
g46
tp744
(dp745
I0
I0
sI20
g8
(g10
S'\t^F\x0e\xdc\r\xe7?'
tRp746
sI-45
I0
sI-20
I0
sI45
I0
ss(g2
g3
g16
g32
tp747
(dp748
I0
I0
sI20
I0
sI-45
I0
sI-20
I0
sI45
I0
ss(g16
g16
g35
g71
tp749
(dp750
I0
I0
sI20
I0
sI-45
I0
sI-20
I0
sI45
I0
ss(g4
g2
g2
g17
tp751
(dp752
I0
I0
sI20
I0
sI-45
I0
sI-20
I0
sI45
I0
ss(g2
g35
g2
g32
tp753
(dp754
I0
I0
sI20
I0
sI-45
g8
(g10
S'\xbc\x0b_x:\n\xf7\xbf'
tRp755
sI-20
F1
sI45
g8
(g10
S'\xd7\xfa\x05Pn+\x04@'
tRp756
ss(g16
g35
g4
g38
tp757
(dp758
I0
I0
sI20
I0
sI-45
I0
sI-20
I0
sI45
I0
ss(g4
g16
g35
g102
tp759
(dp760
I0
I0
sI20
I0
sI-45
I0
sI-20
I0
sI45
I0
ss(g4
g3
g35
g32
tp761
(dp762
I0
I0
sI20
I0
sI-45
I0
sI-20
I0
sI45
I0
ss(g16
g4
g2
g24
tp763
(dp764
I0
I0
sI20
I0
sI-45
I0
sI-20
I0
sI45
I0
ss(g16
g16
g3
g46
tp765
(dp766
I0
I0
sI20
I0
sI-45
I0
sI-20
I0
sI45
I0
ss(g16
g2
g3
g32
tp767
(dp768
I0
g8
(g10
S'\xec\xf2\xda\xd1\x9fI\xff?'
tRp769
sI20
g8
(g10
S'\\\xbc\xf9\xfdS\xc3\xa3?'
tRp770
sI-45
g8
(g10
S'|8\xb2V\x0c\xd8\x0b@'
tRp771
sI-20
g8
(g10
S')h(\x8d"\x1d\xea?'
tRp772
sI45
g8
(g10
S'\xef\xcf\xc8X\xc33\xd2?'
tRp773
ss(g4
g35
g35
g46
tp774
(dp775
I0
I0
sI20
I0
sI-45
I0
sI-20
I0
sI45
I0
ss(g2
g3
g16
g102
tp776
(dp777
I0
I0
sI20
I0
sI-45
I0
sI-20
I0
sI45
I0
ss(g2
g16
g2
g24
tp778
(dp779
I0
g8
(g10
S'\xcd\x10\xb8\xc0\xb3\x86\xeb\xbf'
tRp780
sI20
g8
(g10
S'T\x16\xed\xb6pT\xe5\xbf'
tRp781
sI-45
g8
(g10
S'}\xb9\xb6\x97\x87\xf2\xd5\xbf'
tRp782
sI-20
g8
(g10
S'<\x9d\xc9\xb7\x94\x1c\xcc\xbf'
tRp783
sI45
g8
(g10
S'\x90\x87\xbe\xaa\xe8\xed\xeb\xbf'
tRp784
ss(g2
g35
g2
g102
tp785
(dp786
I0
I0
sI20
I0
sI-45
I0
sI-20
I0
sI45
F1
ss(g16
g16
g3
g5
tp787
(dp788
I0
g8
(g10
S'\xa4\xa9\x02\xba%c\x10\xc0'
tRp789
sI20
g8
(g10
S'\xfc\xd6\xed\xce\xb8G\x10\xc0'
tRp790
sI-45
g8
(g10
S'B=\xb0\xbd\x03o\x10\xc0'
tRp791
sI-20
g8
(g10
S'\xaf\xde\xb5hM\x93\x10\xc0'
tRp792
sI45
g8
(g10
S'p\xb0\x8f\xe41\xd1\x0f\xc0'
tRp793
ss(g4
g16
g35
g24
tp794
(dp795
I0
I0
sI20
I0
sI-45
I0
sI-20
I0
sI45
I0
ss(g2
g4
g16
g5
tp796
(dp797
I0
g8
(g10
S'>-c\xb8\x13\xcf\x10\xc0'
tRp798
sI20
g8
(g10
S'\x1bb\xfc=\xd1\xa5\x10\xc0'
tRp799
sI-45
g8
(g10
S'Vj\x08O!n\x10\xc0'
tRp800
sI-20
g8
(g10
S'iA\xdb\xf3\xfe\x04\x11\xc0'
tRp801
sI45
g8
(g10
S'\xac]\xe2\xbc\xe3\xa7\x10\xc0'
tRp802
ss(g16
g3
g35
g32
tp803
(dp804
I0
I0
sI20
I0
sI-45
I0
sI-20
I0
sI45
I0
ss(g2
g3
g2
g46
tp805
(dp806
I0
g8
(g10
S'\x94\xb1O\xdcNS\xe9?'
tRp807
sI20
g8
(g10
S'|\x1a\xa7\xb4\xe9\xa3\xeb\xbf'
tRp808
sI-45
g8
(g10
S'0\xbdJj[\xc3\xc9\xbf'
tRp809
sI-20
g8
(g10
S'\x91\xbe\xc1\x01\x80\xfc\xf1?'
tRp810
sI45
g8
(g10
S'Hn\xba\xfb\x8a]\x11@'
tRp811
ss(g4
g2
g3
g71
tp812
(dp813
I0
I0
sI20
I0
sI-45
I0
sI-20
I0
sI45
I0
ss(g4
g35
g4
g46
tp814
(dp815
I0
I0
sI20
I0
sI-45
I0
sI-20
I0
sI45
I0
ss(g4
g35
g4
g17
tp816
(dp817
I0
I0
sI20
I0
sI-45
I0
sI-20
I0
sI45
I0
ss(g16
g4
g2
g46
tp818
(dp819
I0
I0
sI20
I0
sI-45
I0
sI-20
I0
sI45
I0
ss(g16
g16
g3
g90
tp820
(dp821
I0
I0
sI20
I0
sI-45
I0
sI-20
I0
sI45
I0
ss(g2
g16
g2
g38
tp822
(dp823
I0
g8
(g10
S'\x8f\x99C\x15\x94\xac\x0b\xc0'
tRp824
sI20
g8
(g10
S'\xba\xa5yB\x01\xbb\x0e\xc0'
tRp825
sI-45
g8
(g10
S'\x1a\x1b\x81\xd1u\x1a\x10\xc0'
tRp826
sI-20
g8
(g10
S'\xaa\x1a6\xbd[\x90\x10\xc0'
tRp827
sI45
g8
(g10
S'\xe2\xca\xafd\xc5\xd6\x10\xc0'
tRp828
ss(g2
g3
g35
g90
tp829
(dp830
I0
I0
sI20
I0
sI-45
g8
(g10
S'EGC\xe5\xd8\x01\xee\xbf'
tRp831
sI-20
I0
sI45
g8
(g10
S'^~\x88\xcd\x85\xae\xd2\xbf'
tRp832
ss(g2
g16
g2
g5
tp833
(dp834
I0
g8
(g10
S'\x12\x949&=\x0c\x11\xc0'
tRp835
sI20
g8
(g10
S'0\xf5\x9f\x9a\xe3\xc0\x10\xc0'
tRp836
sI-45
g8
(g10
S'\x02R\xc4\xf26c\x0f\xc0'
tRp837
sI-20
g8
(g10
S'\x01\x19\xfa7*c\x11\xc0'
tRp838
sI45
g8
(g10
S'\xc2\xc5U\xe2\xb5 \x10\xc0'
tRp839
ss(g2
g35
g35
g71
tp840
(dp841
I0
g8
(g10
S'\xd2\xb5\xe6\xc3\xa0<\x11\xc0'
tRp842
sI20
g8
(g10
S"/'\xbe<\xdeB\x10\xc0"
tRp843
sI-45
g8
(g10
S'\xe2\xb2\xf1\x19c\xb8\x10\xc0'
tRp844
sI-20
g8
(g10
S'\xca\x95\x87\xdf\x1a@\x10\xc0'
tRp845
sI45
g8
(g10
S'\xf3\xd1\xc5J\xf7\\\x10\xc0'
tRp846
ss(g4
g2
g2
g38
tp847
(dp848
I0
I0
sI20
I0
sI-45
I0
sI-20
I0
sI45
I0
ss(g16
g35
g2
g17
tp849
(dp850
I0
I0
sI20
I0
sI-45
I0
sI-20
I0
sI45
I0
ss(g4
g2
g35
g5
tp851
(dp852
I0
I0
sI20
I0
sI-45
I0
sI-20
I0
sI45
I0
ss(g16
g16
g16
g102
tp853
(dp854
I0
I0
sI20
I0
sI-45
I0
sI-20
I0
sI45
I0
ss(g4
g16
g2
g71
tp855
(dp856
I0
I0
sI20
I0
sI-45
I0
sI-20
I0
sI45
I0
ss(g16
g4
g2
g38
tp857
(dp858
I0
I0
sI20
g8
(g10
S'\xbb\x19\xfb\x15\xa8e\xc7\xbf'
tRp859
sI-45
I0
sI-20
I0
sI45
I0
ss(g2
g16
g16
g71
tp860
(dp861
I0
g8
(g10
S'"s\x84%\xb6c\x10\xc0'
tRp862
sI20
g8
(g10
S'\xe8bp@T\xb9\x0e\xc0'
tRp863
sI-45
g8
(g10
S'M\x0bw-\x8b\x86\t\xc0'
tRp864
sI-20
g8
(g10
S'\xd7\x00W\xc7\x7f\x02\x10\xc0'
tRp865
sI45
g8
(g10
S'4\x86\xa8\xab\xdd\x86\x0f\xc0'
tRp866
ss(g2
g4
g4
g5
tp867
(dp868
I0
g8
(g10
S'|=g\xbe\x88\xe4\x0e\xc0'
tRp869
sI20
g8
(g10
S'\xde\x06\xc8]\xe0\x14\x10\xc0'
tRp870
sI-45
g8
(g10
S'%\xae\xfe\xed\xb7k\x0f\xc0'
tRp871
sI-20
g8
(g10
S'<\x14*E\xfa7\x0f\xc0'
tRp872
sI45
g8
(g10
S'G\xfdRD\xa9\x13\x0f\xc0'
tRp873
ss(g2
g16
g35
g24
tp874
(dp875
I0
I0
sI20
I0
sI-45
I0
sI-20
g8
(g10
S'we\xa6\x0f\x08\r\xd0\xbf'
tRp876
sI45
g8
(g10
S'\x9a1\xa1C\x89\xc8\xce\xbf'
tRp877
ss(g2
g16
g16
g38
tp878
(dp879
I0
g8
(g10
S'\xaa\xba\x0c\xef\\<\x10\xc0'
tRp880
sI20
g8
(g10
S'\xcc\xed\xd8\x7f\xda\xcf\n\xc0'
tRp881
sI-45
g8
(g10
S'\xb3\x05\xdff1\x00\x10\xc0'
tRp882
sI-20
g8
(g10
S'\x08\xb3\xc53\xe0\x86\x10\xc0'
tRp883
sI45
g8
(g10
S'0L\x08\xac\x8b6\x10\xc0'
tRp884
ss(g4
g4
g35
g71
tp885
(dp886
I0
I0
sI20
I0
sI-45
I0
sI-20
I0
sI45
I0
ss(g4
g2
g16
g38
tp887
(dp888
I0
I0
sI20
I0
sI-45
I0
sI-20
I0
sI45
I0
ss(g4
g3
g3
g5
tp889
(dp890
I0
I0
sI20
I0
sI-45
I0
sI-20
I0
sI45
I0
ss(g4
g2
g35
g17
tp891
(dp892
I0
I0
sI20
I0
sI-45
I0
sI-20
I0
sI45
I0
ss(g4
g35
g35
g102
tp893
(dp894
I0
I0
sI20
I0
sI-45
I0
sI-20
I0
sI45
I0
ss(g2
g4
g2
g90
tp895
(dp896
I0
I0
sI20
I0
sI-45
I0
sI-20
I0
sI45
I0
ss(g4
g16
g3
g71
tp897
(dp898
I0
I0
sI20
I0
sI-45
I0
sI-20
I0
sI45
I0
ss(g2
g2
g2
g24
tp899
(dp900
I0
F-0.40000000000000002
sI20
g8
(g10
S'|e>\xc2,\xbc\xed\xbf'
tRp901
sI-45
I0
sI-20
I0
sI45
g8
(g10
S'\xf4\xb8/\x18\x1b\xf0\xdd\xbf'
tRp902
ss(g2
g4
g35
g71
tp903
(dp904
I0
g8
(g10
S'C\xccz\xad4g\x08\xc0'
tRp905
sI20
g8
(g10
S'3B\xf7\x03l\xa3\x07\xc0'
tRp906
sI-45
g8
(g10
S')\xaf~\rv\x8d\x08\xc0'
tRp907
sI-20
g8
(g10
S"\x81m\xb4\x04\xcb'\x08\xc0"
tRp908
sI45
g8
(g10
S'm\xc7\x1a\x07\xfb\x81\x07\xc0'
tRp909
ss(g2
g2
g2
g17
tp910
(dp911
I0
I0
sI20
I0
sI-45
I0
sI-20
I0
sI45
I0
ss(g4
g16
g35
g38
tp912
(dp913
I0
I0
sI20
I0
sI-45
I0
sI-20
I0
sI45
I0
ss(g16
g3
g3
g71
tp914
(dp915
I0
g8
(g10
S'x\xa8\x83{\xb4\x8d\t\xc0'
tRp916
sI20
g8
(g10
S'^a\x08\x07\xe2\x1c\xfd\xbf'
tRp917
sI-45
g8
(g10
S'\xc3\xbe\xfaXv\x12\xc9?'
tRp918
sI-20
g8
(g10
S'\xf4+\x0e\xdeK\xd5\x04\xc0'
tRp919
sI45
g8
(g10
S'\xd3\x87\x91\xb5 \x96\x05\xc0'
tRp920
ss(g16
g2
g4
g71
tp921
(dp922
I0
I0
sI20
I0
sI-45
I0
sI-20
I0
sI45
I0
ss(g4
g35
g4
g24
tp923
(dp924
I0
I0
sI20
I0
sI-45
I0
sI-20
I0
sI45
I0
ss(g4
g35
g4
g32
tp925
(dp926
I0
I0
sI20
I0
sI-45
I0
sI-20
I0
sI45
I0
ss(g4
g3
g16
g38
tp927
(dp928
I0
I0
sI20
I0
sI-45
I0
sI-20
I0
sI45
I0
ss(g2
g35
g35
g24
tp929
(dp930
I0
g8
(g10
S'6\x997\xe0\x04\xd2\xf2\xbf'
tRp931
sI20
g8
(g10
S'\xd7\x1c\xd4%"M\xed\xbf'
tRp932
sI-45
g8
(g10
S'B>\x00\xb8&\x05\xf2\xbf'
tRp933
sI-20
g8
(g10
S'\xfcOH\xe5\xfa\x94\xe7\xbf'
tRp934
sI45
g8
(g10
S',\xfc\x14\x92Z\x92\xf9\xbf'
tRp935
ss(g16
g16
g35
g32
tp936
(dp937
I0
I0
sI20
I0
sI-45
I0
sI-20
I0
sI45
I0
ss(g4
g4
g35
g32
tp938
(dp939
I0
I0
sI20
I0
sI-45
I0
sI-20
I0
sI45
I0
ss(g2
g2
g3
g38
tp940
(dp941
I0
g8
(g10
S'\xe3\x15\xc9\xa1\xe48\n\xc0'
tRp942
sI20
g8
(g10
S'\x10Z\xd0\x18\x02\x0c\x05\xc0'
tRp943
sI-45
g8
(g10
S'\x9fw\x14b\xa1#\xd4\xbf'
tRp944
sI-20
g8
(g10
S'\x8f\xf6\xca\xe2w.\x05\xc0'
tRp945
sI45
g8
(g10
S'\xb7C\xd3\x95\xf3\xb3\x0b\xc0'
tRp946
ss(g2
g2
g2
g5
tp947
(dp948
I0
g8
(g10
S"\xaf\xad\x06\x05'\x9c\t\xc0"
tRp949
sI20
g8
(g10
S'j\x01s\xac=r\x11\xc0'
tRp950
sI-45
g8
(g10
S'\xda+e|V\x13\x12\xc0'
tRp951
sI-20
g8
(g10
S'\x02\xa0\xb1\x85\xafA\x11\xc0'
tRp952
sI45
g8
(g10
S'\xe5\xde\xf5\xcc\xbb\x93\x10\xc0'
tRp953
ss(g2
g35
g16
g24
tp954
(dp955
I0
g8
(g10
S'\xfczrA]\x9a\xe5\xbf'
tRp956
sI20
g8
(g10
S'\x9c\xfe\x11s\xbe7\xe1\xbf'
tRp957
sI-45
g8
(g10
S'\x04\xa5\xb8z\x9c\xe3\xe0\xbf'
tRp958
sI-20
g8
(g10
S'\xca\x8c\xf4UC\x10\xf8\xbf'
tRp959
sI45
g8
(g10
S'\xf2\xde#\xf1\x10n\xe2\xbf'
tRp960
ss(g16
g2
g2
g24
tp961
(dp962
I0
I0
sI20
I0
sI-45
I0
sI-20
I0
sI45
I0
ss(g4
g35
g2
g38
tp963
(dp964
I0
I0
sI20
I0
sI-45
I0
sI-20
I0
sI45
I0
ss(g2
g2
g4
g102
tp965
(dp966
I0
I0
sI20
I0
sI-45
I0
sI-20
I0
sI45
I0
ss(g16
g4
g4
g17
tp967
(dp968
I0
I0
sI20
I0
sI-45
I0
sI-20
I0
sI45
I0
ss(g2
g3
g3
g46
tp969
(dp970
I0
I0
sI20
I0
sI-45
I0
sI-20
I0
sI45
I0
ss(g4
g3
g3
g24
tp971
(dp972
I0
I0
sI20
I0
sI-45
I0
sI-20
I0
sI45
I0
ss(g2
g35
g2
g17
tp973
(dp974
I0
I0
sI20
I0
sI-45
I0
sI-20
I0
sI45
I0
ss(g4
g2
g2
g32
tp975
(dp976
I0
I0
sI20
I0
sI-45
I0
sI-20
I0
sI45
I0
ss(g2
g2
g2
g90
tp977
(dp978
I0
F-0.40000000000000002
sI20
g8
(g10
S'\xb1dH%\x8d\x80\xe1\xbf'
tRp979
sI-45
g8
(g10
S'vj+S-\xee\xe1\xbf'
tRp980
sI-20
g8
(g10
S'\x1ei\xfcXjJ\xdb\xbf'
tRp981
sI45
F-0.40000000000000002
ss(g4
g4
g35
g24
tp982
(dp983
I0
I0
sI20
I0
sI-45
I0
sI-20
I0
sI45
I0
ss(g16
g2
g35
g24
tp984
(dp985
I0
I0
sI20
I0
sI-45
I0
sI-20
I0
sI45
I0
ss(g4
g4
g35
g5
tp986
(dp987
I0
I0
sI20
I0
sI-45
I0
sI-20
I0
sI45
I0
ss(g4
g3
g16
g102
tp988
(dp989
I0
I0
sI20
I0
sI-45
I0
sI-20
I0
sI45
I0
ss(g4
g3
g3
g71
tp990
(dp991
I0
I0
sI20
I0
sI-45
I0
sI-20
I0
sI45
I0
ss(g16
g35
g3
g71
tp992
(dp993
I0
g8
(g10
S'L\xf2\x88\xb3^m\x00\xc0'
tRp994
sI20
g8
(g10
S'|\x99\xe3g`\xca\xfe\xbf'
tRp995
sI-45
g8
(g10
S'\x04/y\xbcm|\xfe\xbf'
tRp996
sI-20
g8
(g10
S'\xc86\x9c\xac\xfb\x9d\xff\xbf'
tRp997
sI45
g8
(g10
S'V\x15^\x06>3\x00\xc0'
tRp998
ss(g4
g4
g3
g46
tp999
(dp1000
I0
I0
sI20
I0
sI-45
I0
sI-20
I0
sI45
I0
ss(g16
g35
g4
g90
tp1001
(dp1002
I0
I0
sI20
I0
sI-45
I0
sI-20
I0
sI45
I0
ss(g2
g35
g16
g5
tp1003
(dp1004
I0
g8
(g10
S'\xb2+tZ\x92\xe9\x0e\xc0'
tRp1005
sI20
g8
(g10
S'\xd1\xe9\x94\xb6\xeaM\x10\xc0'
tRp1006
sI-45
g8
(g10
S'V3n\xba\t\xfd\x10\xc0'
tRp1007
sI-20
g8
(g10
S'\xad-\xdaM\xcd\xeb\x10\xc0'
tRp1008
sI45
g8
(g10
S'/\x10\xf8\xe1\t\xe4\x0e\xc0'
tRp1009
ss(g4
g4
g35
g46
tp1010
(dp1011
I0
I0
sI20
I0
sI-45
I0
sI-20
I0
sI45
I0
ss(g4
g35
g3
g90
tp1012
(dp1013
I0
I0
sI20
I0
sI-45
I0
sI-20
I0
sI45
I0
ss(g2
g4
g3
g102
tp1014
(dp1015
I0
I0
sI20
I0
sI-45
I0
sI-20
I0
sI45
I0
ss(g4
g16
g3
g5
tp1016
(dp1017
I0
I0
sI20
I0
sI-45
I0
sI-20
I0
sI45
I0
ss(g4
g4
g2
g24
tp1018
(dp1019
I0
I0
sI20
I0
sI-45
I0
sI-20
I0
sI45
I0
ss(g4
g2
g16
g32
tp1020
(dp1021
I0
I0
sI20
I0
sI-45
I0
sI-20
I0
sI45
I0
ss(g2
g35
g16
g38
tp1022
(dp1023
I0
g8
(g10
S'X\xd9Ph\xd5(\x03\xc0'
tRp1024
sI20
g8
(g10
S'dRC\xf01\xcf\x00\xc0'
tRp1025
sI-45
g8
(g10
S'+k\x92\xdb,\xbf\x01\xc0'
tRp1026
sI-20
g8
(g10
S'B<W5M\x84\x00\xc0'
tRp1027
sI45
g8
(g10
S'\x86fO\n\xb0\x8d\x02\xc0'
tRp1028
ss(g4
g35
g3
g38
tp1029
(dp1030
I0
I0
sI20
I0
sI-45
I0
sI-20
I0
sI45
I0
ss(g4
g3
g2
g17
tp1031
(dp1032
I0
I0
sI20
I0
sI-45
I0
sI-20
I0
sI45
I0
ss(g2
g3
g3
g71
tp1033
(dp1034
I0
g8
(g10
S'"+\xfaZ\xbfX\x00\xc0'
tRp1035
sI20
g8
(g10
S'\x85zcm\xb5\\\xd9\xbf'
tRp1036
sI-45
g8
(g10
S'\xd2;\x1b\xec3\xe4\x02\xc0'
tRp1037
sI-20
g8
(g10
S'\xe37LRe\x01\x01\xc0'
tRp1038
sI45
g8
(g10
S'\x99\x15\x855\xe7\xa5\xfd\xbf'
tRp1039
ss(g2
g3
g2
g17
tp1040
(dp1041
I0
F1
sI20
I0
sI-45
F1
sI-20
I0
sI45
g8
(g10
S'6\xba\xf3\xc4\x85\xf2\x11@'
tRp1042
ss(g4
g16
g2
g46
tp1043
(dp1044
I0
I0
sI20
I0
sI-45
I0
sI-20
I0
sI45
I0
ss(g16
g3
g3
g38
tp1045
(dp1046
I0
g8
(g10
S'pm\x02\xd4\xeaH\xf1\xbf'
tRp1047
sI20
g8
(g10
S'\xc9q\x1b\x91\x1a\xad\xec\xbf'
tRp1048
sI-45
g8
(g10
S'\xc2\x9c\xbb*\xa2\x1c\x03\xc0'
tRp1049
sI-20
g8
(g10
S'=\x02\xc8y\xbaz\xef\xbf'
tRp1050
sI45
g8
(g10
S'@\xef\x94\xf6+h\xa9\xbf'
tRp1051
ss(g4
g4
g35
g90
tp1052
(dp1053
I0
I0
sI20
I0
sI-45
I0
sI-20
I0
sI45
I0
ss(g2
g4
g35
g90
tp1054
(dp1055
I0
I0
sI20
I0
sI-45
I0
sI-20
I0
sI45
I0
ss(g2
g3
g4
g32
tp1056
(dp1057
I0
I0
sI20
I0
sI-45
I0
sI-20
I0
sI45
I0
ss(g2
g16
g35
g46
tp1058
(dp1059
I0
I0
sI20
I0
sI-45
I0
sI-20
I0
sI45
I0
ss(g16
g2
g16
g38
tp1060
(dp1061
I0
I0
sI20
I0
sI-45
I0
sI-20
I0
sI45
I0
ss(g16
g35
g35
g5
tp1062
(dp1063
I0
I0
sI20
I0
sI-45
I0
sI-20
I0
sI45
I0
ss(g4
g4
g3
g17
tp1064
(dp1065
I0
I0
sI20
I0
sI-45
I0
sI-20
I0
sI45
I0
ss(g16
g4
g2
g71
tp1066
(dp1067
I0
I0
sI20
I0
sI-45
I0
sI-20
I0
sI45
I0
ss(g16
g35
g35
g90
tp1068
(dp1069
I0
I0
sI20
I0
sI-45
I0
sI-20
I0
sI45
I0
ss(g4
g3
g2
g5
tp1070
(dp1071
I0
I0
sI20
I0
sI-45
I0
sI-20
I0
sI45
I0
ss(g16
g3
g2
g5
tp1072
(dp1073
I0
g8
(g10
S',\xc7\xfa\xae\x97\x8c\xf9\xbf'
tRp1074
sI20
g8
(g10
S'F\xcc\x9c\xc0\x13\xb9\x02\xc0'
tRp1075
sI-45
g8
(g10
S'\xd1\xbf\xfc\xcf\x90B\xf9\xbf'
tRp1076
sI-20
g8
(g10
S'.\x04\xcd\x0e\x0b&\xfb\xbf'
tRp1077
sI45
g8
(g10
S'\x9f\x9eL\xc0@\x15\xfa\xbf'
tRp1078
ss(g4
g16
g2
g90
tp1079
(dp1080
I0
I0
sI20
I0
sI-45
I0
sI-20
I0
sI45
I0
ss(g2
g3
g3
g90
tp1081
(dp1082
I0
I0
sI20
g8
(g10
S'\xf3\xb8U\xb8*Z\xd2\xbf'
tRp1083
sI-45
I0
sI-20
I0
sI45
I0
ss(g2
g4
g35
g46
tp1084
(dp1085
I0
I0
sI20
I0
sI-45
I0
sI-20
I0
sI45
I0
ss(g16
g35
g2
g71
tp1086
(dp1087
I0
I0
sI20
I0
sI-45
I0
sI-20
I0
sI45
I0
ss(g4
g2
g16
g24
tp1088
(dp1089
I0
I0
sI20
I0
sI-45
I0
sI-20
I0
sI45
I0
ss(g2
g35
g3
g102
tp1090
(dp1091
I0
I0
sI20
I0
sI-45
I0
sI-20
I0
sI45
I0
ss(g4
g35
g16
g17
tp1092
(dp1093
I0
I0
sI20
I0
sI-45
I0
sI-20
I0
sI45
I0
ss(g4
g16
g2
g17
tp1094
(dp1095
I0
I0
sI20
I0
sI-45
I0
sI-20
I0
sI45
I0
ss(g2
g16
g16
g24
tp1096
(dp1097
I0
g8
(g10
S'\xf0V\xf2m\xf3\x9b\xdb\xbf'
tRp1098
sI20
g8
(g10
S'p3\xd8\x8c\x8c\x14\xea\xbf'
tRp1099
sI-45
g8
(g10
S'\x1ePh\xc3\x06\xff\xe0\xbf'
tRp1100
sI-20
g8
(g10
S'\xaf\xe4\x8d\xa7J\x13\xee\xbf'
tRp1101
sI45
g8
(g10
S'\x80\x9f3%W\x90\xeb\xbf'
tRp1102
ss(g16
g3
g16
g71
tp1103
(dp1104
I0
g8
(g10
S'\t\xe5w\x81\xbd\xf6\xeb\xbf'
tRp1105
sI20
g8
(g10
S'\xbe\x0eQ\xe5\xb8E\xf2\xbf'
tRp1106
sI-45
g8
(g10
S'&\x1c4\xe0\xa7g\xeb\xbf'
tRp1107
sI-20
g8
(g10
S'n5`\xaa\x9f*\xeb\xbf'
tRp1108
sI45
g8
(g10
S'\t\xb759\xfc\x93\xdc\xbf'
tRp1109
ss(g2
g4
g2
g17
tp1110
(dp1111
I0
I0
sI20
F1.8
sI-45
I0
sI-20
I0
sI45
g8
(g10
S'\xb6\x16\xce\x10hI\xd2\xbf'
tRp1112
ss(g16
g35
g35
g17
tp1113
(dp1114
I0
I0
sI20
I0
sI-45
I0
sI-20
I0
sI45
I0
ss(g2
g4
g2
g38
tp1115
(dp1116
I0
g8
(g10
S'\xea\xb8@J\xa0\xc1\x0f\xc0'
tRp1117
sI20
g8
(g10
S'\xe8X\xdd8t\xd3\r\xc0'
tRp1118
sI-45
g8
(g10
S'\x05\xe2\x98\xc9\xc7Z\x0e\xc0'
tRp1119
sI-20
g8
(g10
S'\xd6\xb4\x88GHK\x0e\xc0'
tRp1120
sI45
g8
(g10
S'\xc0\x99\xb8+\xb5\xb2\x0c\xc0'
tRp1121
ss(g2
g16
g16
g17
tp1122
(dp1123
I0
I0
sI20
I0
sI-45
I0
sI-20
I0
sI45
I0
ss(g4
g35
g2
g102
tp1124
(dp1125
I0
I0
sI20
I0
sI-45
I0
sI-20
I0
sI45
I0
ss(g2
g2
g16
g32
tp1126
(dp1127
I0
I0
sI20
I0
sI-45
g8
(g10
S'Os\x90&U\x0c\xc1\xbf'
tRp1128
sI-20
I0
sI45
g8
(g10
S'\xde\xc25/\x05\x10\xee?'
tRp1129
ss(g2
g35
g3
g24
tp1130
(dp1131
I0
g8
(g10
S'\xaeq\xe1H\x10\xb9\x05\xc0'
tRp1132
sI20
g8
(g10
S'\xefibKG\xf4\x0e\xc0'
tRp1133
sI-45
g8
(g10
S'b\x16\xfc\x8e\xaf4\xcc?'
tRp1134
sI-20
g8
(g10
S'L\x81LI\xb7\xe6\n\xc0'
tRp1135
sI45
g8
(g10
S'8\xdc\xb3\xe2vI\x01\xc0'
tRp1136
ss(g2
g35
g16
g71
tp1137
(dp1138
I0
g8
(g10
S'\x92\x02\xba;\xb6c\x10\xc0'
tRp1139
sI20
g8
(g10
S'\xd6-\x02a\x1b\x80\x10\xc0'
tRp1140
sI-45
g8
(g10
S'\x07R\x92\xef\xd3i\x10\xc0'
tRp1141
sI-20
g8
(g10
S'\xd8\xa1n\xf8\xe9r\x10\xc0'
tRp1142
sI45
g8
(g10
S'MU\x7f\x90\xdet\x10\xc0'
tRp1143
ss(g4
g2
g16
g46
tp1144
(dp1145
I0
I0
sI20
I0
sI-45
I0
sI-20
I0
sI45
I0
ss(g16
g4
g4
g102
tp1146
(dp1147
I0
I0
sI20
I0
sI-45
I0
sI-20
I0
sI45
I0
ss(g4
g35
g16
g5
tp1148
(dp1149
I0
I0
sI20
I0
sI-45
I0
sI-20
I0
sI45
I0
ss(g4
g2
g2
g71
tp1150
(dp1151
I0
I0
sI20
I0
sI-45
I0
sI-20
I0
sI45
I0
ss(g2
g16
g16
g46
tp1152
(dp1153
I0
I0
sI20
I0
sI-45
I0
sI-20
I0
sI45
I0
ss(g4
g4
g3
g38
tp1154
(dp1155
I0
I0
sI20
I0
sI-45
I0
sI-20
I0
sI45
I0
ss(g16
g35
g16
g71
tp1156
(dp1157
I0
I0
sI20
I0
sI-45
I0
sI-20
I0
sI45
I0
ss(g16
g16
g2
g17
tp1158
(dp1159
I0
I0
sI20
I0
sI-45
I0
sI-20
I0
sI45
I0
ss(g4
g16
g16
g17
tp1160
(dp1161
I0
I0
sI20
I0
sI-45
I0
sI-20
I0
sI45
I0
ss(g4
g16
g16
g38
tp1162
(dp1163
I0
I0
sI20
I0
sI-45
I0
sI-20
I0
sI45
I0
ss(g4
g2
g3
g38
tp1164
(dp1165
I0
I0
sI20
I0
sI-45
I0
sI-20
I0
sI45
I0
ss(g4
g2
g3
g90
tp1166
(dp1167
I0
I0
sI20
I0
sI-45
I0
sI-20
I0
sI45
I0
ss(g16
g35
g3
g38
tp1168
(dp1169
I0
g8
(g10
S'gY\xcd|\x9et\x01\xc0'
tRp1170
sI20
g8
(g10
S'\xed<>\xd1\xf8$\xfb\xbf'
tRp1171
sI-45
g8
(g10
S'\\\xfd\x07\xb2a\xed\xfc\xbf'
tRp1172
sI-20
g8
(g10
S'\x02\xfa\x98\xfek\xc6\xfb\xbf'
tRp1173
sI45
g8
(g10
S'\x1c\xd9>\xa2\xb7H\xe7\xbf'
tRp1174
ss(g2
g35
g16
g32
tp1175
(dp1176
I0
I0
sI20
I0
sI-45
I0
sI-20
I0
sI45
I0
ss(g16
g3
g3
g24
tp1177
(dp1178
I0
g8
(g10
S'J\x10\xff\x11AY\xed?'
tRp1179
sI20
g8
(g10
S'\xbdP8q-\xed\xf3?'
tRp1180
sI-45
g8
(g10
S'iS\xd2\xa31\xec\xe8?'
tRp1181
sI-20
g8
(g10
S'\x9c\xc7\xb9Q\xd6\xdc\xde?'
tRp1182
sI45
g8
(g10
S'W}\x9fv\xa8M\xdc?'
tRp1183
ss(g2
g16
g3
g38
tp1184
(dp1185
I0
g8
(g10
S'\xebe\x1b\x8cr&\x00\xc0'
tRp1186
sI20
g8
(g10
S'\xc0\x8dD<\x95\x10\x02\xc0'
tRp1187
sI-45
g8
(g10
S't\xf6\xf4\x06\xf2\xdb\xe6?'
tRp1188
sI-20
g8
(g10
S'?\xa9\xaa\xac\x84\x84\x00\xc0'
tRp1189
sI45
g8
(g10
S'\xe9\xf91\xcb5T\x02\xc0'
tRp1190
ss(g16
g35
g16
g24
tp1191
(dp1192
I0
I0
sI20
I0
sI-45
I0
sI-20
I0
sI45
I0
ss(g4
g4
g4
g32
tp1193
(dp1194
I0
I0
sI20
I0
sI-45
I0
sI-20
I0
sI45
I0
ss(g2
g2
g35
g46
tp1195
(dp1196
I0
I0
sI20
g8
(g10
S'Xs)\x15Od\xdd\xbf'
tRp1197
sI-45
g8
(g10
S'\xb5\x91\xa0\xc6\xd1\xc6\xc0\xbf'
tRp1198
sI-20
I0
sI45
g8
(g10
S'\x00\xf1\x9bm\x8b#\xc8?'
tRp1199
ss(g2
g2
g4
g46
tp1200
(dp1201
I0
g8
(g10
S'\x8a\xbb .\xe2/\xb4\xbf'
tRp1202
sI20
g8
(g10
S'\x00\x85`\x80\xd6\xdb\x80\xbf'
tRp1203
sI-45
g8
(g10
S'>\x8d\\\xdf\xe5\xe4\xf5\xbf'
tRp1204
sI-20
I0
sI45
F1.8
ss(g4
g35
g35
g17
tp1205
(dp1206
I0
I0
sI20
I0
sI-45
I0
sI-20
I0
sI45
I0
ss(g2
g2
g35
g32
tp1207
(dp1208
I0
g8
(g10
S'\xb1s\xce9KR\xff?'
tRp1209
sI20
I0
sI-45
I0
sI-20
I0
sI45
g8
(g10
S'J\x9d\xbfw\xb3\xb0\xeb\xbf'
tRp1210
ss(g16
g2
g35
g32
tp1211
(dp1212
I0
I0
sI20
I0
sI-45
I0
sI-20
I0
sI45
I0
ss(g16
g4
g35
g24
tp1213
(dp1214
I0
I0
sI20
I0
sI-45
I0
sI-20
I0
sI45
I0
ss(g2
g16
g3
g46
tp1215
(dp1216
I0
I0
sI20
I0
sI-45
I0
sI-20
I0
sI45
I0
ss(g16
g2
g35
g46
tp1217
(dp1218
I0
I0
sI20
I0
sI-45
I0
sI-20
I0
sI45
I0
ss(g2
g2
g3
g102
tp1219
(dp1220
I0
I0
sI20
I0
sI-45
I0
sI-20
I0
sI45
F1
ss(g16
g3
g3
g32
tp1221
(dp1222
I0
I0
sI20
I0
sI-45
I0
sI-20
I0
sI45
I0
ss(g4
g16
g3
g24
tp1223
(dp1224
I0
I0
sI20
I0
sI-45
I0
sI-20
I0
sI45
I0
ss(g4
g35
g4
g102
tp1225
(dp1226
I0
I0
sI20
I0
sI-45
I0
sI-20
I0
sI45
I0
ss(g4
g2
g3
g46
tp1227
(dp1228
I0
I0
sI20
I0
sI-45
I0
sI-20
I0
sI45
I0
ss(g2
g2
g4
g38
tp1229
(dp1230
I0
g8
(g10
S'\x8dd)\xe5\xe2#\x0f\xc0'
tRp1231
sI20
g8
(g10
S'\xce\x84\x8c\xa9\xeb\xe9\x0e\xc0'
tRp1232
sI-45
g8
(g10
S'6\xe4\xccL\x14\x05\x0f\xc0'
tRp1233
sI-20
g8
(g10
S'\xed\x19\x97\x7f\x9aH\x0f\xc0'
tRp1234
sI45
g8
(g10
S'\xee\x0e\xc08*\x0e\x0f\xc0'
tRp1235
ss(g2
g2
g2
g102
tp1236
(dp1237
I0
I0
sI20
I0
sI-45
I0
sI-20
I0
sI45
I0
ss(g4
g4
g2
g71
tp1238
(dp1239
I0
I0
sI20
I0
sI-45
I0
sI-20
I0
sI45
I0
ss(g2
g2
g35
g102
tp1240
(dp1241
I0
I0
sI20
I0
sI-45
I0
sI-20
I0
sI45
I0
ss(g2
g16
g4
g46
tp1242
(dp1243
I0
g8
(g10
S'e8\xa3c\x13\x95\xd2\xbf'
tRp1244
sI20
g8
(g10
S'\xe5 \xb4fe\xb7\xd2\xbf'
tRp1245
sI-45
F1
sI-20
g8
(g10
S'\xb7\x16\x1cbpg\xd2\xbf'
tRp1246
sI45
g8
(g10
S'k3u\x07\xaf\x1d\xc1\xbf'
tRp1247
ss(g4
g4
g4
g102
tp1248
(dp1249
I0
I0
sI20
I0
sI-45
I0
sI-20
I0
sI45
I0
ss(g4
g4
g2
g38
tp1250
(dp1251
I0
I0
sI20
I0
sI-45
I0
sI-20
I0
sI45
I0
ss(g4
g16
g3
g32
tp1252
(dp1253
I0
I0
sI20
I0
sI-45
I0
sI-20
I0
sI45
I0
ss(g4
g16
g16
g46
tp1254
(dp1255
I0
I0
sI20
I0
sI-45
I0
sI-20
I0
sI45
I0
ss(g2
g16
g4
g90
tp1256
(dp1257
I0
I0
sI20
I0
sI-45
I0
sI-20
I0
sI45
I0
ss(g4
g35
g2
g90
tp1258
(dp1259
I0
I0
sI20
I0
sI-45
I0
sI-20
I0
sI45
I0
ss(g4
g16
g35
g90
tp1260
(dp1261
I0
I0
sI20
I0
sI-45
I0
sI-20
I0
sI45
I0
ss(g16
g2
g16
g17
tp1262
(dp1263
I0
I0
sI20
I0
sI-45
I0
sI-20
I0
sI45
I0
ss(g16
g2
g4
g38
tp1264
(dp1265
I0
I0
sI20
I0
sI-45
I0
sI-20
I0
sI45
I0
ss(g2
g35
g35
g32
tp1266
(dp1267
I0
I0
sI20
g8
(g10
S'\xd8\x8b\xbdN\x18\x1a\xb7?'
tRp1268
sI-45
I0
sI-20
I0
sI45
I0
ss(g4
g35
g3
g5
tp1269
(dp1270
I0
I0
sI20
I0
sI-45
I0
sI-20
I0
sI45
I0
ss(g4
g4
g3
g102
tp1271
(dp1272
I0
I0
sI20
I0
sI-45
I0
sI-20
I0
sI45
I0
ss(g2
g16
g4
g24
tp1273
(dp1274
I0
I0
sI20
I0
sI-45
I0
sI-20
I0
sI45
g8
(g10
S'N\x03\xdb\xa3\xb5\xe3\xc9?'
tRp1275
ss(g2
g16
g35
g32
tp1276
(dp1277
I0
I0
sI20
I0
sI-45
I0
sI-20
I0
sI45
I0
ss(g2
g2
g16
g38
tp1278
(dp1279
I0
g8
(g10
S"J'\xaf{I\xed\x08\xc0"
tRp1280
sI20
g8
(g10
S'_\x11\xeb\x86&;\t\xc0'
tRp1281
sI-45
g8
(g10
S'l\xeb~\xa6x\xfc\x07\xc0'
tRp1282
sI-20
g8
(g10
S'm\xb0\xe5\xcb~N\x08\xc0'
tRp1283
sI45
g8
(g10
S'\xff2\xeb\x1e\x94\xfc\x07\xc0'
tRp1284
ss(g16
g35
g16
g5
tp1285
(dp1286
I0
I0
sI20
I0
sI-45
I0
sI-20
I0
sI45
I0
ss(g4
g35
g2
g46
tp1287
(dp1288
I0
I0
sI20
I0
sI-45
I0
sI-20
I0
sI45
I0
ss(g4
g16
g4
g71
tp1289
(dp1290
I0
I0
sI20
I0
sI-45
I0
sI-20
I0
sI45
I0
ss(g16
g3
g35
g5
tp1291
(dp1292
I0
g8
(g10
S'P\xea\x1eS\xb6\x8f\xef\xbf'
tRp1293
sI20
g8
(g10
S'Fm\xe4u\x1d\x83\xf5\xbf'
tRp1294
sI-45
g8
(g10
S'\xc82\x8fo\xfe\xf6\xf1\xbf'
tRp1295
sI-20
g8
(g10
S',\x1c\xea\x8ai\x9e\xf1\xbf'
tRp1296
sI45
g8
(g10
S'`\x1cYJ(T\xf1\xbf'
tRp1297
ss(g4
g4
g16
g90
tp1298
(dp1299
I0
I0
sI20
I0
sI-45
I0
sI-20
I0
sI45
I0
ss(g4
g16
g4
g46
tp1300
(dp1301
I0
I0
sI20
I0
sI-45
I0
sI-20
I0
sI45
I0
ss(g2
g2
g2
g46
tp1302
(dp1303
I0
g8
(g10
S'\xfb(\xc6\xde\xf9\x07\xe5\xbf'
tRp1304
sI20
g8
(g10
S'\xf0\x9b\xd3Fo\xe9\xdc\xbf'
tRp1305
sI-45
g8
(g10
S'^\x87\x9c\xe8`\xaa\xe5\xbf'
tRp1306
sI-20
g8
(g10
S'\x9f\xc0a\x83\x0e\x19\xc0\xbf'
tRp1307
sI45
g8
(g10
S'\xdd\x8d\x9dq\x8f\x91\xd2\xbf'
tRp1308
ss(g16
g2
g16
g5
tp1309
(dp1310
I0
I0
sI20
I0
sI-45
I0
sI-20
I0
sI45
I0
ss(g2
g4
g2
g102
tp1311
(dp1312
I0
I0
sI20
I0
sI-45
I0
sI-20
I0
sI45
I0
ss(g2
g2
g16
g24
tp1313
(dp1314
I0
g8
(g10
S'H\xa3\xb9\x9fR\xaa\xd2\xbf'
tRp1315
sI20
I0
sI-45
I0
sI-20
g8
(g10
S'\x9d>\xca\x82\x9b\x8e\xe8\xbf'
tRp1316
sI45
g8
(g10
S'\xa5\n~Q\xbe\x1d\xe8\xbf'
tRp1317
ss(g4
g16
g4
g24
tp1318
(dp1319
I0
I0
sI20
I0
sI-45
I0
sI-20
I0
sI45
I0
ss(g2
g35
g3
g5
tp1320
(dp1321
I0
g8
(g10
S'1\x1d\xcb\x9e\xb0w\x10\xc0'
tRp1322
sI20
g8
(g10
S'\xd9\xa1\x93Q\xca\xe0\x10\xc0'
tRp1323
sI-45
g8
(g10
S'<LG\xfe|d\x10\xc0'
tRp1324
sI-20
g8
(g10
S'\x87\x94i#\xf3@\x11\xc0'
tRp1325
sI45
g8
(g10
S'5\x85\xaaG\x0bO\x10\xc0'
tRp1326
ss(g2
g35
g3
g38
tp1327
(dp1328
I0
g8
(g10
S'\xfe\x83Ul s\x08\xc0'
tRp1329
sI20
g8
(g10
S'\x16\xf3h4`V\x06\xc0'
tRp1330
sI-45
g8
(g10
S'\xffgt\xdaK\xb9\t\xc0'
tRp1331
sI-20
g8
(g10
S'\xa9D\xbc\x99\x8c\x1d\xc4?'
tRp1332
sI45
g8
(g10
S'b\xa1"\xb9T\xea\x06\xc0'
tRp1333
ss(g16
g2
g4
g17
tp1334
(dp1335
I0
I0
sI20
I0
sI-45
I0
sI-20
I0
sI45
I0
ss(g16
g35
g3
g32
tp1336
(dp1337
I0
I0
sI20
I0
sI-45
I0
sI-20
I0
sI45
g8
(g10
S"\xce\x925}\xd1'\xf4?"
tRp1338
ss(g4
g3
g2
g90
tp1339
(dp1340
I0
I0
sI20
I0
sI-45
I0
sI-20
I0
sI45
I0
ss(g2
g35
g2
g38
tp1341
(dp1342
I0
g8
(g10
S'l\xa0\x85P\x9e\xaa\x0f\xc0'
tRp1343
sI20
g8
(g10
S'\xb8\x01\xc0\x07\xac\xd9\x0f\xc0'
tRp1344
sI-45
g8
(g10
S"\x10\x14I'\x84\x8a\r\xc0"
tRp1345
sI-20
g8
(g10
S'*\xbd\xa1?%\xfe\x0c\xc0'
tRp1346
sI45
g8
(g10
S'\x94j\xb08\x863\x07\xc0'
tRp1347
ss(g2
g4
g3
g17
tp1348
(dp1349
I0
g8
(g10
S'\xe4\xd1G\xffB\xd2\xf4?'
tRp1350
sI20
g8
(g10
S'\xa8\tr1\x1f\x97\xf4?'
tRp1351
sI-45
g8
(g10
S'\xb6;iG\x90\x14\x06@'
tRp1352
sI-20
g8
(g10
S'\x9a\x1cS\x00W\xb1\x12@'
tRp1353
sI45
g8
(g10
S'N:#\xdc\xd0\xf9\x02@'
tRp1354
ss(g16
g4
g3
g5
tp1355
(dp1356
I0
g8
(g10
S'o\xa0J5\xebn\r\xc0'
tRp1357
sI20
g8
(g10
S"\xb1'1\xf0\xf8J\x0c\xc0"
tRp1358
sI-45
g8
(g10
S'\x91\xaa\xb8\xc1\xabG\xff\xbf'
tRp1359
sI-20
g8
(g10
S'\xb0d\xb7\x89\xb5\xec\x0b\xc0'
tRp1360
sI45
g8
(g10
S'\xcd\x01&\xffH\x1b\x05\xc0'
tRp1361
ss(g4
g4
g2
g102
tp1362
(dp1363
I0
I0
sI20
I0
sI-45
I0
sI-20
I0
sI45
I0
ss(g2
g4
g3
g24
tp1364
(dp1365
I0
g8
(g10
S'g\x1am\x11\xecS\xec\xbf'
tRp1366
sI20
g8
(g10
S'\xcaF\xf0\x1b\xf1\x13\x00\xc0'
tRp1367
sI-45
g8
(g10
S'f\x1cS+a\x07\xd1\xbf'
tRp1368
sI-20
g8
(g10
S'\xb5\xf3\xca\x05\x92\x0f\xfb\xbf'
tRp1369
sI45
g8
(g10
S'0\x1f\x98\x93#p\x01\xc0'
tRp1370
ss(g4
g3
g4
g38
tp1371
(dp1372
I0
I0
sI20
I0
sI-45
I0
sI-20
I0
sI45
I0
ss(g16
g16
g2
g102
tp1373
(dp1374
I0
I0
sI20
I0
sI-45
I0
sI-20
I0
sI45
I0
ss(g4
g2
g4
g5
tp1375
(dp1376
I0
I0
sI20
I0
sI-45
I0
sI-20
I0
sI45
I0
ss(g4
g3
g4
g5
tp1377
(dp1378
I0
I0
sI20
I0
sI-45
I0
sI-20
I0
sI45
I0
ss(g16
g2
g4
g24
tp1379
(dp1380
I0
I0
sI20
I0
sI-45
I0
sI-20
I0
sI45
I0
ss(g16
g4
g2
g32
tp1381
(dp1382
I0
I0
sI20
F1
sI-45
I0
sI-20
I0
sI45
g8
(g10
S"'P\x97\x1cE\xe7\xd1\xbf"
tRp1383
ss(g4
g3
g35
g90
tp1384
(dp1385
I0
I0
sI20
I0
sI-45
I0
sI-20
I0
sI45
I0
ss(g16
g2
g3
g38
tp1386
(dp1387
I0
g8
(g10
S'\x1b\x85\xa9\x95n\x89\xf0\xbf'
tRp1388
sI20
g8
(g10
S'K`\x90\xb4\xd09\x04\xc0'
tRp1389
sI-45
g8
(g10
S'\xd6\xc3vJ\x9b\x99\x03\xc0'
tRp1390
sI-20
g8
(g10
S'\xd0\x10h\x10\xc7\xc8\xe0\xbf'
tRp1391
sI45
g8
(g10
S'N\xdd8\xdd\xb1\xa7\xfa\xbf'
tRp1392
ss(g2
g3
g16
g5
tp1393
(dp1394
I0
g8
(g10
S'\xd9S_Z\x81~\x10\xc0'
tRp1395
sI20
g8
(g10
S'\x04-q6\xc4!\x11\xc0'
tRp1396
sI-45
g8
(g10
S'p\t\x9f\x08A$\x11\xc0'
tRp1397
sI-20
g8
(g10
S'M\xd5\xff\x81F\x02\x11\xc0'
tRp1398
sI45
g8
(g10
S'cl\xeb\x8djm\x0f\xc0'
tRp1399
ss(g2
g4
g3
g5
tp1400
(dp1401
I0
g8
(g10
S'\x1bfuj\xb1\xe9\x11\xc0'
tRp1402
sI20
g8
(g10
S'S\x1ek\x86\xc2\xe1\r\xc0'
tRp1403
sI-45
g8
(g10
S'-1\x19\xd3T\xdd\x11\xc0'
tRp1404
sI-20
g8
(g10
S'\x03\x0c=m\x9b\xed\x11\xc0'
tRp1405
sI45
g8
(g10
S'HiB\x07,\xa8\x12\xc0'
tRp1406
ss(g2
g4
g16
g102
tp1407
(dp1408
I0
I0
sI20
I0
sI-45
I0
sI-20
I0
sI45
I0
ss(g16
g4
g3
g17
tp1409
(dp1410
I0
I0
sI20
I0
sI-45
g8
(g10
S'\x90\xbaG\xd5z\xbf\xdf\xbf'
tRp1411
sI-20
I0
sI45
I0
ss(g16
g16
g3
g102
tp1412
(dp1413
I0
I0
sI20
I0
sI-45
I0
sI-20
I0
sI45
I0
ss(g16
g3
g4
g32
tp1414
(dp1415
I0
I0
sI20
I0
sI-45
I0
sI-20
I0
sI45
I0
ss(g16
g3
g4
g5
tp1416
(dp1417
I0
g8
(g10
S"\x1e'^\xcb\xb7.\x07\xc0"
tRp1418
sI20
g8
(g10
S'\x82J\xa7\x90\xb29\x07\xc0'
tRp1419
sI-45
g8
(g10
S'\xb14\x03\x9c\xa5\xaa\x07\xc0'
tRp1420
sI-20
g8
(g10
S'\x06n\xa0\xcc\x06\xe7\x06\xc0'
tRp1421
sI45
g8
(g10
S"x'BT$\x7f\x07\xc0"
tRp1422
ss(g2
g16
g3
g17
tp1423
(dp1424
I0
g8
(g10
S',\xeb\xad\x1f4|\xfa?'
tRp1425
sI20
g8
(g10
S'\xa2J\x86{\xafF\xee?'
tRp1426
sI-45
g8
(g10
S'f-\xe6\xd6\xe1\xfc\xef?'
tRp1427
sI-20
I0
sI45
g8
(g10
S'n>\xc7\xbd\x80_\x13@'
tRp1428
ss(g4
g4
g3
g90
tp1429
(dp1430
I0
I0
sI20
I0
sI-45
I0
sI-20
I0
sI45
I0
ss(g16
g35
g4
g71
tp1431
(dp1432
I0
I0
sI20
I0
sI-45
I0
sI-20
I0
sI45
I0
ss(g4
g35
g4
g90
tp1433
(dp1434
I0
I0
sI20
I0
sI-45
I0
sI-20
I0
sI45
I0
ss(g16
g16
g3
g32
tp1435
(dp1436
I0
I0
sI20
I0
sI-45
I0
sI-20
I0
sI45
I0
ss(g2
g16
g3
g24
tp1437
(dp1438
I0
g8
(g10
S'8\x8b\x91i\x07\x93\xc7?'
tRp1439
sI20
g8
(g10
S'\xae\xbe=\x9cmk\x03\xc0'
tRp1440
sI-45
g8
(g10
S'\xa02\xbe\x19\xa3\xbe\xf9\xbf'
tRp1441
sI-20
g8
(g10
S'D{\x06\xbd\x0c{\xc8?'
tRp1442
sI45
g8
(g10
S'\xe8\xf9\xb9\n0l\xff\xbf'
tRp1443
ss(g4
g16
g4
g5
tp1444
(dp1445
I0
I0
sI20
I0
sI-45
I0
sI-20
I0
sI45
I0
ss(g2
g4
g16
g32
tp1446
(dp1447
I0
g8
(g10
S'\xfau\x0bZY%\xea\xbf'
tRp1448
sI20
g8
(g10
S"\xda'\xe5\x8eqK\xe6\xbf"
tRp1449
sI-45
g8
(g10
S'\xc8}\xbfH\xba\xf2\xcf\xbf'
tRp1450
sI-20
g8
(g10
S'\x97\xdb\x9b\x92\xa5K\xb5\xbf'
tRp1451
sI45
g8
(g10
S'E\xee\x05\xf4\x04\xa1\xd2\xbf'
tRp1452
ss(g16
g2
g3
g24
tp1453
(dp1454
I0
g8
(g10
S'\xb1(\xf9\xbd\x1f\x87\xe7\xbf'
tRp1455
sI20
g8
(g10
S'K\xaf\xaa\xab\x04\x80\xf2\xbf'
tRp1456
sI-45
g8
(g10
S'Z\xa1\x93\x04\xf3%\xe1\xbf'
tRp1457
sI-20
g8
(g10
S'\x9a\x9e`\xa7\xa9\xf3\xe5?'
tRp1458
sI45
g8
(g10
S'\x81\xefq\x88k\xaa\xf1\xbf'
tRp1459
ss(g16
g2
g2
g46
tp1460
(dp1461
I0
I0
sI20
I0
sI-45
I0
sI-20
I0
sI45
g8
(g10
S'(\x1b\xfb\x1b|\x9a\xd1\xbf'
tRp1462
ss(g4
g2
g3
g24
tp1463
(dp1464
I0
I0
sI20
I0
sI-45
I0
sI-20
I0
sI45
I0
ss(g16
g2
g2
g32
tp1465
(dp1466
I0
I0
sI20
g8
(g10
S'\x9a\xf8F\x9bPa\xd2\xbf'
tRp1467
sI-45
I0
sI-20
I0
sI45
g8
(g10
S'K\xaa\x01\x9b\x08\x89\xd2\xbf'
tRp1468
ss(g2
g16
g2
g17
tp1469
(dp1470
I0
I0
sI20
I0
sI-45
I0
sI-20
I0
sI45
I0
ss(g2
g3
g3
g24
tp1471
(dp1472
I0
g8
(g10
S'\x86\x1d\xd8\x134\x90\x03\xc0'
tRp1473
sI20
g8
(g10
S'\xab\xd1c\xc9\xcb,\xf7\xbf'
tRp1474
sI-45
g8
(g10
S'\x97uH\x11\x84g\x01\xc0'
tRp1475
sI-20
g8
(g10
S'\xfb\xf1p\xc5\x94\xe5\x00\xc0'
tRp1476
sI45
g8
(g10
S'\xe2OH\x18\xe3S\xca?'
tRp1477
ss(g16
g35
g16
g38
tp1478
(dp1479
I0
I0
sI20
I0
sI-45
I0
sI-20
I0
sI45
I0
ss(g4
g16
g16
g71
tp1480
(dp1481
I0
I0
sI20
I0
sI-45
I0
sI-20
I0
sI45
I0
ss(g2
g3
g3
g17
tp1482
(dp1483
I0
g8
(g10
S'\xcfN\xdf\x8c\xd3\x90\n@'
tRp1484
sI20
g8
(g10
S'\x97w,\xa2{\x05\x0e@'
tRp1485
sI-45
g8
(g10
S'jK\x9f\x9d\xacc\x16@'
tRp1486
sI-20
g8
(g10
S'\xd8xZ\x04\x85\x8e\x13@'
tRp1487
sI45
g8
(g10
S'\x0e\x87\xb5\xa8\xba\x05\x13@'
tRp1488
ss(g16
g16
g35
g5
tp1489
(dp1490
I0
I0
sI20
I0
sI-45
I0
sI-20
I0
sI45
I0
ss(g16
g3
g4
g17
tp1491
(dp1492
I0
I0
sI20
I0
sI-45
I0
sI-20
I0
sI45
I0
ss(g2
g2
g35
g90
tp1493
(dp1494
I0
g8
(g10
S'b\xb3\xb0M\x80\xa0\xf0?'
tRp1495
sI20
g8
(g10
S'`;\xce\xd0\xf1\xc7\xcf\xbf'
tRp1496
sI-45
I0
sI-20
g8
(g10
S'\x92\xdc\x15^\xd7\t\xc1\xbf'
tRp1497
sI45
g8
(g10
S'e\xb5\xdf\xf0\x84\xa8\xca\xbf'
tRp1498
ss(g4
g3
g4
g102
tp1499
(dp1500
I0
I0
sI20
I0
sI-45
I0
sI-20
I0
sI45
I0
ss(g16
g2
g3
g46
tp1501
(dp1502
I0
I0
sI20
I0
sI-45
I0
sI-20
I0
sI45
I0
ss(g16
g4
g3
g32
tp1503
(dp1504
I0
g8
(g10
S'\xd0\xa9)n(\xb0\xc8?'
tRp1505
sI20
g8
(g10
S'\xda}\x0b#\xd3I\x01@'
tRp1506
sI-45
g8
(g10
S"y@\x1e'[*\x04@"
tRp1507
sI-20
g8
(g10
S'\xe6\xa9\x90\x92\xec\xeb\xf0?'
tRp1508
sI45
g8
(g10
S'\xa26S\xb5\xc5L\t@'
tRp1509
ss(g2
g16
g4
g38
tp1510
(dp1511
I0
g8
(g10
S's\x81s\xf9C\xb7\x10\xc0'
tRp1512
sI20
g8
(g10
S'G\xc3\xb8\xbe\xeb\n\x11\xc0'
tRp1513
sI-45
g8
(g10
S'\xb7\xbfc\xfeA\x96\r\xc0'
tRp1514
sI-20
g8
(g10
S'\x15\xf9\xba\x99\xbb\xcf\x10\xc0'
tRp1515
sI45
g8
(g10
S'\xb9z\x15\xb7\xf1W\x0f\xc0'
tRp1516
ss(g2
g3
g35
g5
tp1517
(dp1518
I0
g8
(g10
S'\xb1\t\xb58k\xa3\r\xc0'
tRp1519
sI20
g8
(g10
S'\x1a8*\xd7&5\r\xc0'
tRp1520
sI-45
g8
(g10
S'|\x11\x8a\x9d\xec\x14\x10\xc0'
tRp1521
sI-20
g8
(g10
S'\x93\x01\x9b,\x86\xae\x0e\xc0'
tRp1522
sI45
g8
(g10
S'r\xff?\xa83\xea\x0c\xc0'
tRp1523
ss(g4
g2
g2
g5
tp1524
(dp1525
I0
I0
sI20
I0
sI-45
I0
sI-20
I0
sI45
I0
ss(g2
g3
g35
g38
tp1526
(dp1527
I0
g8
(g10
S'\xb8Zz\xda\xe9\xc6\x10\xc0'
tRp1528
sI20
g8
(g10
S'\x06X|X\x83\xfb\x10\xc0'
tRp1529
sI-45
g8
(g10
S'<\xc6$\xc3X\xe1\x10\xc0'
tRp1530
sI-20
g8
(g10
S'\x1co\xe5lO\xe8\x10\xc0'
tRp1531
sI45
g8
(g10
S'\xca\xd7\x01\xed\x1f\x1a\x10\xc0'
tRp1532
ss(g16
g4
g2
g17
tp1533
(dp1534
I0
I0
sI20
I0
sI-45
I0
sI-20
I0
sI45
I0
ss(g2
g4
g4
g32
tp1535
(dp1536
I0
g8
(g10
S'#\xeb\xff\x7f`\x9e\xd2\xbf'
tRp1537
sI20
g8
(g10
S'\xf0 \x03\xe9\x1f\x8d\xbd\xbf'
tRp1538
sI-45
I0
sI-20
I0
sI45
g8
(g10
S'\x10\x84[\xc9\x97P\xc4\xbf'
tRp1539
ss(g2
g2
g2
g71
tp1540
(dp1541
I0
g8
(g10
S'5\xb0\x98gp\x1e\x11\xc0'
tRp1542
sI20
g8
(g10
S'\x857\x85elY\x0b\xc0'
tRp1543
sI-45
g8
(g10
S'\xf8\xbfm\xe7\x8e\xca\x0f\xc0'
tRp1544
sI-20
g8
(g10
S'\xf8\x80\xcb\x98\x833\x0f\xc0'
tRp1545
sI45
g8
(g10
S'\xc0\x8fn>\xe1\x8d\x0e\xc0'
tRp1546
ss(g2
g16
g35
g5
tp1547
(dp1548
I0
g8
(g10
S'\xbbD\xba\xd8\xab\xbd\x0e\xc0'
tRp1549
sI20
g8
(g10
S'\xd6\x1e\xb1\x8c\xd9\xa7\x10\xc0'
tRp1550
sI-45
g8
(g10
S'\xdbD\x80\xbc\xe3x\x0f\xc0'
tRp1551
sI-20
g8
(g10
S'}\x85\xc1\xd1,E\x0f\xc0'
tRp1552
sI45
g8
(g10
S'\x0e\xd6\xfcwm\xc0\x0f\xc0'
tRp1553
ss(g16
g2
g3
g90
tp1554
(dp1555
I0
g8
(g10
S'\xc0\xc6\xa35\x1fR\xe2\xbf'
tRp1556
sI20
g8
(g10
S'D\xb5\xe5\xdb\xcb\x9f\xc9\xbf'
tRp1557
sI-45
I0
sI-20
g8
(g10
S"'|\xcb:5\x9e\xd0\xbf"
tRp1558
sI45
g8
(g10
S'\x0bZP\xcf\x13\xc0\xb4\xbf'
tRp1559
ss(g16
g3
g35
g102
tp1560
(dp1561
I0
I0
sI20
I0
sI-45
I0
sI-20
I0
sI45
I0
ss(g2
g3
g35
g24
tp1562
(dp1563
I0
g8
(g10
S'\x15\xc7\xba>\xde]\x01\xc0'
tRp1564
sI20
g8
(g10
S'}q\x9b\xe1\xb5\x05\x06\xc0'
tRp1565
sI-45
g8
(g10
S'C\xedjc\xc9\x02\x0c\xc0'
tRp1566
sI-20
g8
(g10
S':wI\xb8q\t\x04\xc0'
tRp1567
sI45
g8
(g10
S'\xa1\xc6Zt!\xdb\xf1\xbf'
tRp1568
ss(g4
g3
g35
g102
tp1569
(dp1570
I0
I0
sI20
I0
sI-45
I0
sI-20
I0
sI45
I0
ss(g4
g2
g35
g24
tp1571
(dp1572
I0
I0
sI20
I0
sI-45
I0
sI-20
I0
sI45
I0
ss(g2
g3
g35
g17
tp1573
(dp1574
I0
I0
sI20
F1
sI-45
I0
sI-20
g8
(g10
S'r\xe8\n\xa6\xdf\xaa\xd4?'
tRp1575
sI45
g8
(g10
S'\xce\x89\x82\x98\x05\xa8\x03@'
tRp1576
ss(g16
g35
g2
g102
tp1577
(dp1578
I0
I0
sI20
I0
sI-45
I0
sI-20
I0
sI45
I0
ss(g16
g35
g35
g71
tp1579
(dp1580
I0
g8
(g10
S'$\x83dX\x1d\x12\xcc\xbf'
tRp1581
sI20
g8
(g10
S' 222\x08\xe3\xcb\xbf'
tRp1582
sI-45
I0
sI-20
I0
sI45
g8
(g10
S'\xe4J\xa8c\x0f#\xcf\xbf'
tRp1583
ss(g16
g3
g2
g71
tp1584
(dp1585
I0
g8
(g10
S'\xd5\xbb7@H5\xf5\xbf'
tRp1586
sI20
g8
(g10
S'\x16\xa6L\xce_R\xf2\xbf'
tRp1587
sI-45
g8
(g10
S'\xcagD!i\xdf\xe8\xbf'
tRp1588
sI-20
g8
(g10
S's\xe9u|G\xf3\x04\xc0'
tRp1589
sI45
g8
(g10
S'\x9f\xc7\x877g\xd8\x05\xc0'
tRp1590
ss(g2
g3
g2
g38
tp1591
(dp1592
I0
g8
(g10
S'\x15\xec\x80\x1cu\x9f\x11\xc0'
tRp1593
sI20
g8
(g10
S'\xeez\xf2\xbd\t1\x11\xc0'
tRp1594
sI-45
g8
(g10
S's\x98\x1cH\x017\x12\xc0'
tRp1595
sI-20
g8
(g10
S'H\x83:\xdb\xfb\x98\x11\xc0'
tRp1596
sI45
g8
(g10
S'\x93\x14t\xf2\xf7:\x12\xc0'
tRp1597
ss(g4
g3
g16
g17
tp1598
(dp1599
I0
I0
sI20
I0
sI-45
I0
sI-20
I0
sI45
I0
ss(g16
g35
g2
g90
tp1600
(dp1601
I0
I0
sI20
I0
sI-45
I0
sI-20
I0
sI45
I0
ss(g16
g35
g2
g5
tp1602
(dp1603
I0
I0
sI20
I0
sI-45
I0
sI-20
I0
sI45
I0
ss(g16
g3
g4
g38
tp1604
(dp1605
I0
g8
(g10
S'\xfe3;Y"\xf5\x05\xc0'
tRp1606
sI20
g8
(g10
S'\x99\xfb\tp=C\x05\xc0'
tRp1607
sI-45
g8
(g10
S'\xd1\xdc\xd6\x96\x9bk\x04\xc0'
tRp1608
sI-20
g8
(g10
S'\xc9\xd5\xc1C}\xbd\x06\xc0'
tRp1609
sI45
g8
(g10
S'\xc0.\xef(\\\x96\x05\xc0'
tRp1610
ss(g2
g3
g3
g38
tp1611
(dp1612
I0
g8
(g10
S'0\xb2\xbd\xbb\x96s\x01\xc0'
tRp1613
sI20
g8
(g10
S'5\x9fV\xf8\xa4\x0c\x01\xc0'
tRp1614
sI-45
g8
(g10
S'\x1b\xb7\xc2\xbd\xfbg\x03\xc0'
tRp1615
sI-20
g8
(g10
S'\x03\xd9\xb5\xee#\x04\x06\xc0'
tRp1616
sI45
g8
(g10
S'E\x1aI\x13\x95\x9d\xf1\xbf'
tRp1617
ss(g4
g16
g4
g38
tp1618
(dp1619
I0
I0
sI20
I0
sI-45
I0
sI-20
I0
sI45
I0
ss(g2
g4
g4
g102
tp1620
(dp1621
I0
I0
sI20
I0
sI-45
I0
sI-20
I0
sI45
I0
ss(g16
g35
g3
g46
tp1622
(dp1623
I0
I0
sI20
I0
sI-45
I0
sI-20
I0
sI45
I0
ss(g16
g2
g16
g102
tp1624
(dp1625
I0
I0
sI20
I0
sI-45
I0
sI-20
I0
sI45
I0
ss(g4
g2
g2
g102
tp1626
(dp1627
I0
I0
sI20
I0
sI-45
I0
sI-20
I0
sI45
I0
ss(g16
g35
g4
g24
tp1628
(dp1629
I0
I0
sI20
g8
(g10
S'\xf2\x1f\xfc\xe03\xda\xea\xbf'
tRp1630
sI-45
I0
sI-20
I0
sI45
I0
ss(g4
g2
g4
g38
tp1631
(dp1632
I0
I0
sI20
I0
sI-45
I0
sI-20
I0
sI45
I0
ss(g16
g2
g16
g32
tp1633
(dp1634
I0
I0
sI20
I0
sI-45
I0
sI-20
g8
(g10
S'\xeah\xcf\xb8\x88J\xe5?'
tRp1635
sI45
I0
ss(g4
g3
g4
g71
tp1636
(dp1637
I0
I0
sI20
I0
sI-45
I0
sI-20
I0
sI45
I0
ss(g16
g2
g16
g90
tp1638
(dp1639
I0
g8
(g10
S'x\xfb\xad?:I\xdd?'
tRp1640
sI20
I0
sI-45
I0
sI-20
I0
sI45
g8
(g10
S'\x8f&G\xbb)\xdb\xf5?'
tRp1641
ss(g16
g3
g35
g46
tp1642
(dp1643
I0
I0
sI20
g8
(g10
S'\x80\xde\x04O\xfb\x1f\xe1?'
tRp1644
sI-45
I0
sI-20
I0
sI45
g8
(g10
S'\xc3\x18X\xf7N\xe8\xe3\xbf'
tRp1645
ss(g2
g3
g16
g90
tp1646
(dp1647
I0
I0
sI20
I0
sI-45
I0
sI-20
I0
sI45
I0
ss(g4
g3
g4
g90
tp1648
(dp1649
I0
I0
sI20
I0
sI-45
I0
sI-20
I0
sI45
I0
ss(g4
g3
g3
g17
tp1650
(dp1651
I0
I0
sI20
I0
sI-45
I0
sI-20
I0
sI45
I0
ss(g16
g35
g3
g90
tp1652
(dp1653
I0
I0
sI20
I0
sI-45
I0
sI-20
I0
sI45
g8
(g10
S'\xda\xb3\xd0\xb8\x14\\\xde?'
tRp1654
ss(g2
g16
g35
g71
tp1655
(dp1656
I0
g8
(g10
S'\xb5\x85\x87\x99\xee\x17\xf3\xbf'
tRp1657
sI20
g8
(g10
S'\x887\xe4!O(\xf7\xbf'
tRp1658
sI-45
g8
(g10
S'xe-\x0b\x04g\xeb\xbf'
tRp1659
sI-20
g8
(g10
S'\xc6\xb2\xcb\x89mJ\xf4\xbf'
tRp1660
sI45
g8
(g10
S'+W\x93\x166\x8e\xf1\xbf'
tRp1661
ss(g4
g3
g35
g5
tp1662
(dp1663
I0
I0
sI20
I0
sI-45
I0
sI-20
I0
sI45
I0
ss(g4
g3
g35
g24
tp1664
(dp1665
I0
I0
sI20
I0
sI-45
I0
sI-20
I0
sI45
I0
ss(g16
g4
g4
g24
tp1666
(dp1667
I0
I0
sI20
I0
sI-45
I0
sI-20
I0
sI45
g8
(g10
S'\xbc\x82>\xc5\xd3\xd3\xdb\xbf'
tRp1668
ss(g16
g35
g4
g46
tp1669
(dp1670
I0
I0
sI20
I0
sI-45
I0
sI-20
I0
sI45
I0
ss(g4
g35
g3
g46
tp1671
(dp1672
I0
I0
sI20
I0
sI-45
I0
sI-20
I0
sI45
I0
ss(g16
g3
g16
g24
tp1673
(dp1674
I0
g8
(g10
S'\xcc\x0fI\xafC\xf5\xcf?'
tRp1675
sI20
g8
(g10
S'\x82*\x91\xa7\x8b\x10\xd4?'
tRp1676
sI-45
g8
(g10
S'\xc6^\xaafh\xb7\xce?'
tRp1677
sI-20
g8
(g10
S'\xbdU\x80\x90\ri\xfa?'
tRp1678
sI45
g8
(g10
S'\xac\xc5\x89\x9cM\r\xdc?'
tRp1679
ss(g2
g35
g2
g46
tp1680
(dp1681
I0
g8
(g10
S'7qo\rx\xe4\xea\xbf'
tRp1682
sI20
g8
(g10
S'\x87D\xa3\x88\x97\xdf\xc5?'
tRp1683
sI-45
g8
(g10
S'!\x9f\x8dqj\x19\xe6\xbf'
tRp1684
sI-20
g8
(g10
S'D\xca\xac\xb6\x10#\xd7\xbf'
tRp1685
sI45
g8
(g10
S'\xc3\xca\x8c\rr9\xd2\xbf'
tRp1686
ss(g16
g3
g2
g90
tp1687
(dp1688
I0
g8
(g10
S'L\x0b\x10\x05&\x02\xdc\xbf'
tRp1689
sI20
g8
(g10
S';y\x8f\xed\xff[\xe0\xbf'
tRp1690
sI-45
I0
sI-20
g8
(g10
S'\x86#V\x87\x1b\x9d\xde\xbf'
tRp1691
sI45
g8
(g10
S'@\x8b\x98\x10\xe8\x17\xa4\xbf'
tRp1692
ss(g16
g3
g16
g17
tp1693
(dp1694
I0
I0
sI20
I0
sI-45
I0
sI-20
I0
sI45
I0
ss(g16
g3
g3
g46
tp1695
(dp1696
I0
I0
sI20
g8
(g10
S'\xc3\xb7\x1f\xc3\xea\x02\xe3\xbf'
tRp1697
sI-45
I0
sI-20
g8
(g10
S'\xcf\xf4Q\x12\xb6C\xda\xbf'
tRp1698
sI45
I0
ss(g2
g3
g16
g46
tp1699
(dp1700
I0
I0
sI20
I0
sI-45
I0
sI-20
I0
sI45
I0
ss(g16
g2
g35
g17
tp1701
(dp1702
I0
I0
sI20
I0
sI-45
I0
sI-20
I0
sI45
I0
ss(g4
g4
g2
g17
tp1703
(dp1704
I0
I0
sI20
I0
sI-45
I0
sI-20
I0
sI45
I0
ss(g4
g2
g4
g46
tp1705
(dp1706
I0
I0
sI20
I0
sI-45
I0
sI-20
I0
sI45
I0
ss(g2
g16
g2
g32
tp1707
(dp1708
I0
I0
sI20
I0
sI-45
I0
sI-20
I0
sI45
I0
ss(g2
g35
g16
g46
tp1709
(dp1710
I0
I0
sI20
I0
sI-45
I0
sI-20
I0
sI45
I0
ss(g2
g2
g3
g5
tp1711
(dp1712
I0
g8
(g10
S'Yw-x\x81\xc5\x10\xc0'
tRp1713
sI20
g8
(g10
S'\xed\xc9cb\xe7\xc2\x10\xc0'
tRp1714
sI-45
g8
(g10
S'@\xea\xa6[\xed\x16\x11\xc0'
tRp1715
sI-20
g8
(g10
S'\xd0r\x87\x137P\x11\xc0'
tRp1716
sI45
g8
(g10
S'\xde\xe4u\xb8[\xba\x07\xc0'
tRp1717
ss(g2
g16
g4
g5
tp1718
(dp1719
I0
g8
(g10
S'\xdd\xe7C>t\xf5\x10\xc0'
tRp1720
sI20
g8
(g10
S'\xe1\xfb\x1bNc\x9d\x10\xc0'
tRp1721
sI-45
g8
(g10
S'}\xf3E%\xafs\x11\xc0'
tRp1722
sI-20
g8
(g10
S'\x9fB\xbf\t\xd5\x85\x0b\xc0'
tRp1723
sI45
g8
(g10
S'*\x96\x86M(b\x10\xc0'
tRp1724
ss(g16
g4
g35
g90
tp1725
(dp1726
I0
I0
sI20
I0
sI-45
I0
sI-20
I0
sI45
I0
ss(g2
g16
g35
g90
tp1727
(dp1728
I0
I0
sI20
I0
sI-45
I0
sI-20
I0
sI45
I0
ss(g16
g4
g2
g102
tp1729
(dp1730
I0
I0
sI20
I0
sI-45
I0
sI-20
I0
sI45
I0
ss(g16
g3
g3
g90
tp1731
(dp1732
I0
g8
(g10
S'N\x7fX\xdb\xd8\xc5\xeb\xbf'
tRp1733
sI20
g8
(g10
S'\xb0\x8e\xc8\x80\x97\x02\xd9?'
tRp1734
sI-45
g8
(g10
S'\xed\x05O\xfdw\xbc\xd5?'
tRp1735
sI-20
I0
sI45
g8
(g10
S'\x8c\x8f\xb0\xc6\xcc\xbd\xcd?'
tRp1736
ss(g4
g3
g3
g46
tp1737
(dp1738
I0
I0
sI20
I0
sI-45
I0
sI-20
I0
sI45
I0
ss(g2
g2
g3
g24
tp1739
(dp1740
I0
g8
(g10
S'\x0ey\x94\x01C\x1a\x04\xc0'
tRp1741
sI20
g8
(g10
S'\xd4\xe1\xbb`\xb9U\x04\xc0'
tRp1742
sI-45
g8
(g10
S'\xf7s\xa6=\x1b\xad\t\xc0'
tRp1743
sI-20
g8
(g10
S'\xb8*\xd9\xf0\x02\xe4\xf1\xbf'
tRp1744
sI45
g8
(g10
S'\xde\x18\xa1r\x01\xbb\x05\xc0'
tRp1745
ss(g4
g2
g35
g90
tp1746
(dp1747
I0
I0
sI20
I0
sI-45
I0
sI-20
I0
sI45
I0
ss(g16
g3
g16
g46
tp1748
(dp1749
I0
I0
sI20
I0
sI-45
I0
sI-20
I0
sI45
I0
ss(g4
g4
g16
g24
tp1750
(dp1751
I0
I0
sI20
I0
sI-45
I0
sI-20
I0
sI45
I0
ss(g2
g16
g3
g32
tp1752
(dp1753
I0
I0
sI20
I0
sI-45
I0
sI-20
I0
sI45
I0
ss(g2
g3
g16
g71
tp1754
(dp1755
I0
g8
(g10
S'\xea\xd9"\xd6"f\xff\xbf'
tRp1756
sI20
g8
(g10
S'.\x87i7\xfd\xdf\xf6\xbf'
tRp1757
sI-45
g8
(g10
S'RWcX\xc6\xe4\x04\xc0'
tRp1758
sI-20
g8
(g10
S'\xb0N\xe9\x80Am\xfc\xbf'
tRp1759
sI45
g8
(g10
S'i\x84\xf28\xf5\xde\x05\xc0'
tRp1760
ss(g16
g4
g35
g38
tp1761
(dp1762
I0
I0
sI20
g8
(g10
S'T\x90\x9b\xcfKE\xd1\xbf'
tRp1763
sI-45
I0
sI-20
I0
sI45
I0
ss(g2
g35
g2
g71
tp1764
(dp1765
I0
g8
(g10
S"b\x93\x8b\xbc'*\x11\xc0"
tRp1766
sI20
g8
(g10
S'\xa0\\\x1a\xf3\x11\xaf\x10\xc0'
tRp1767
sI-45
g8
(g10
S'\xd2\xf1\x1a\xe2X\xd1\x0b\xc0'
tRp1768
sI-20
g8
(g10
S'\xfd\xd9\xccb\xe0|\x10\xc0'
tRp1769
sI45
g8
(g10
S'\x18<\\\xe0\xd3\xb5\x10\xc0'
tRp1770
ss(g2
g3
g4
g90
tp1771
(dp1772
I0
g8
(g10
S'\\\x0f\xcdY\xbcU\xe9\xbf'
tRp1773
sI20
I0
sI-45
I0
sI-20
I0
sI45
I0
ss(g2
g35
g16
g90
tp1774
(dp1775
I0
I0
sI20
I0
sI-45
I0
sI-20
I0
sI45
I0
ss(g4
g16
g3
g90
tp1776
(dp1777
I0
I0
sI20
I0
sI-45
I0
sI-20
I0
sI45
I0
ss(g4
g16
g4
g102
tp1778
(dp1779
I0
I0
sI20
I0
sI-45
I0
sI-20
I0
sI45
I0
ss(g16
g4
g35
g46
tp1780
(dp1781
I0
I0
sI20
I0
sI-45
I0
sI-20
I0
sI45
I0
ss(g2
g16
g3
g102
tp1782
(dp1783
I0
I0
sI20
I0
sI-45
I0
sI-20
I0
sI45
I0
ss(g16
g3
g4
g71
tp1784
(dp1785
I0
g8
(g10
S'\x084R\xabP\xbb\xe8\xbf'
tRp1786
sI20
g8
(g10
S'\x1d\xbfF"\x9d\xa4\xf3\xbf'
tRp1787
sI-45
g8
(g10
S'\xef\xe6\xa9\xf8(\xdb\xfb\xbf'
tRp1788
sI-20
g8
(g10
S'\xdc\xbb\xc9\xc90|\xee\xbf'
tRp1789
sI45
g8
(g10
S'\x08\x8fQ\xc8\x03[\xe9\xbf'
tRp1790
ss(g16
g16
g35
g102
tp1791
(dp1792
I0
I0
sI20
I0
sI-45
I0
sI-20
I0
sI45
I0
ss(g4
g4
g35
g38
tp1793
(dp1794
I0
I0
sI20
I0
sI-45
I0
sI-20
I0
sI45
I0
ss(g4
g2
g35
g46
tp1795
(dp1796
I0
I0
sI20
I0
sI-45
I0
sI-20
I0
sI45
I0
ss(g16
g2
g3
g5
tp1797
(dp1798
I0
g8
(g10
S'\x13\xe0\xa8+\x85\x03\x04\xc0'
tRp1799
sI20
g8
(g10
S'\xa4\xec\xa0%.e\x01\xc0'
tRp1800
sI-45
g8
(g10
S'd\x8f\x8e\xb5\x11G\x03\xc0'
tRp1801
sI-20
g8
(g10
S'>\x18C\xe1\t\xce\x03\xc0'
tRp1802
sI45
g8
(g10
S'\x9e^9\xbce4\x03\xc0'
tRp1803
ss(g16
g16
g16
g32
tp1804
(dp1805
I0
I0
sI20
I0
sI-45
I0
sI-20
I0
sI45
I0
ss(g4
g3
g2
g102
tp1806
(dp1807
I0
I0
sI20
I0
sI-45
I0
sI-20
I0
sI45
I0
ss(g2
g2
g16
g90
tp1808
(dp1809
I0
I0
sI20
I0
sI-45
I0
sI-20
I0
sI45
I0
ss(g2
g16
g16
g5
tp1810
(dp1811
I0
g8
(g10
S'\x8d\xff~\x89\xd2\xe5\x0f\xc0'
tRp1812
sI20
g8
(g10
S'\x1e.P\xb5\xe6\xd5\x0e\xc0'
tRp1813
sI-45
g8
(g10
S'\x90|?\xf1\xe4\xd1\x0f\xc0'
tRp1814
sI-20
g8
(g10
S'\xe8Wb5r\x1d\x0f\xc0'
tRp1815
sI45
g8
(g10
S'q\xebw\xf7k5\x11\xc0'
tRp1816
ss(g4
g2
g16
g5
tp1817
(dp1818
I0
I0
sI20
I0
sI-45
I0
sI-20
I0
sI45
I0
ss(g4
g16
g3
g38
tp1819
(dp1820
I0
I0
sI20
I0
sI-45
I0
sI-20
I0
sI45
I0
ss(g4
g2
g16
g90
tp1821
(dp1822
I0
I0
sI20
I0
sI-45
I0
sI-20
I0
sI45
I0
ss(g2
g35
g35
g46
tp1823
(dp1824
I0
I0
sI20
I0
sI-45
I0
sI-20
I0
sI45
I0
ss(g2
g16
g4
g102
tp1825
(dp1826
I0
I0
sI20
I0
sI-45
I0
sI-20
I0
sI45
I0
ss(g2
g4
g3
g32
tp1827
(dp1828
I0
g8
(g10
S'<9y\xc1l\x11\xd0?'
tRp1829
sI20
g8
(g10
S'"\x89\x1a{\xf2\x8e\x06@'
tRp1830
sI-45
g8
(g10
S'\xdbSX\xaf\xf6\xce\x0f@'
tRp1831
sI-20
g8
(g10
S'V\x83\xb3\x83\xa6!\xf8?'
tRp1832
sI45
g8
(g10
S'\x98\xb3\xbfI\x8b\x7f\xe8?'
tRp1833
ss(g2
g16
g16
g90
tp1834
(dp1835
I0
I0
sI20
I0
sI-45
I0
sI-20
I0
sI45
I0
ss(g2
g3
g2
g5
tp1836
(dp1837
I0
g8
(g10
S'}1\xd3\x98\xf9\x9c\x11\xc0'
tRp1838
sI20
g8
(g10
S'y\xfd\xda\x7f=\x9e\x11\xc0'
tRp1839
sI-45
g8
(g10
S'\xc5\xa9\x7f\x8a\n\xfc\n\xc0'
tRp1840
sI-20
g8
(g10
S'\xe2p9\xcd\x80\x07\x12\xc0'
tRp1841
sI45
g8
(g10
S'\xd8y\x0f\xdb\xdfI\x11\xc0'
tRp1842
ss(g4
g16
g2
g24
tp1843
(dp1844
I0
I0
sI20
I0
sI-45
I0
sI-20
I0
sI45
I0
ss(g4
g16
g35
g71
tp1845
(dp1846
I0
I0
sI20
I0
sI-45
I0
sI-20
I0
sI45
I0
ss(g16
g3
g16
g5
tp1847
(dp1848
I0
g8
(g10
S'72v?Iz\x0b\xc0'
tRp1849
sI20
g8
(g10
S'\xa6\xce\x03\xc6\xd1\xc9\x0c\xc0'
tRp1850
sI-45
g8
(g10
S'\xf8\xb5\xa2\xc09\x80\x0b\xc0'
tRp1851
sI-20
g8
(g10
S'\xb1\xb0\xdb\xfc\xbe\xbc\x0c\xc0'
tRp1852
sI45
g8
(g10
S'\xbe\x92(\x9fl2\t\xc0'
tRp1853
ss(g16
g2
g4
g32
tp1854
(dp1855
I0
I0
sI20
I0
sI-45
I0
sI-20
I0
sI45
g8
(g10
S'<\xa8\x83\xf3b\r\xef?'
tRp1856
ss(g4
g2
g16
g102
tp1857
(dp1858
I0
I0
sI20
I0
sI-45
I0
sI-20
I0
sI45
I0
ss(g16
g16
g2
g5
tp1859
(dp1860
I0
I0
sI20
I0
sI-45
I0
sI-20
I0
sI45
I0
ss(g16
g35
g35
g24
tp1861
(dp1862
I0
I0
sI20
I0
sI-45
I0
sI-20
I0
sI45
I0
ss(g4
g16
g3
g46
tp1863
(dp1864
I0
I0
sI20
I0
sI-45
I0
sI-20
I0
sI45
I0
ss(g16
g35
g3
g24
tp1865
(dp1866
I0
g8
(g10
S'\x18\x85"\xaa_\xfc\xf3\xbf'
tRp1867
sI20
g8
(g10
S'\xf2P2WP&\xf8\xbf'
tRp1868
sI-45
g8
(g10
S'\x10\xb6\x1e\x02\xbe\xa7\xf9\xbf'
tRp1869
sI-20
g8
(g10
S'W\xac=\xf1o\x1f\xf8\xbf'
tRp1870
sI45
g8
(g10
S'\xack\xa9(/(\xd2\xbf'
tRp1871
ss(g2
g2
g4
g17
tp1872
(dp1873
I0
I0
sI20
I0
sI-45
I0
sI-20
I0
sI45
g8
(g10
S'\xe2\x98\r)8\xa8\xf8?'
tRp1874
ss(g16
g4
g3
g71
tp1875
(dp1876
I0
g8
(g10
S'\xa2\xae+@\xf4\x8e\x02\xc0'
tRp1877
sI20
g8
(g10
S'\xbe\xff\xc3r\xc4\xe4\xfe\xbf'
tRp1878
sI-45
g8
(g10
S'\x86\x92r\x89\xbd3\xfb\xbf'
tRp1879
sI-20
g8
(g10
S'S@\x0eSS\x95\x01\xc0'
tRp1880
sI45
g8
(g10
S'\xd36\xf7\x15\x91\x16\xfc\xbf'
tRp1881
ss(g4
g16
g16
g102
tp1882
(dp1883
I0
I0
sI20
I0
sI-45
I0
sI-20
I0
sI45
I0
ss(g2
g3
g35
g71
tp1884
(dp1885
I0
g8
(g10
S'\xb3]\xfa\xc4if\x04\xc0'
tRp1886
sI20
g8
(g10
S'\x9e}\xa6\xb5\xa9b\xf3\xbf'
tRp1887
sI-45
g8
(g10
S'K\xdc\x1d\xf2Q\xf4\x02\xc0'
tRp1888
sI-20
g8
(g10
S'\xf8\xdfevP\x9c\x01\xc0'
tRp1889
sI45
g8
(g10
S'\xc1\x83\xca\x05\xfc\xf1\x04\xc0'
tRp1890
ss(g4
g4
g16
g5
tp1891
(dp1892
I0
I0
sI20
I0
sI-45
I0
sI-20
I0
sI45
I0
ss(g2
g16
g4
g32
tp1893
(dp1894
I0
I0
sI20
I0
sI-45
I0
sI-20
I0
sI45
I0
ss(g4
g2
g3
g32
tp1895
(dp1896
I0
I0
sI20
I0
sI-45
I0
sI-20
I0
sI45
I0
ss(g4
g4
g3
g5
tp1897
(dp1898
I0
I0
sI20
I0
sI-45
I0
sI-20
I0
sI45
I0
ss(g2
g4
g16
g71
tp1899
(dp1900
I0
g8
(g10
S'\x86\xe6\x04SJ\xc5\x11\xc0'
tRp1901
sI20
g8
(g10
S's\n\xbd#6D\x0f\xc0'
tRp1902
sI-45
g8
(g10
S'\x1e\x05\xdcw\x0bR\x11\xc0'
tRp1903
sI-20
g8
(g10
S'q\x06\\\xaf\xf3.\x11\xc0'
tRp1904
sI45
g8
(g10
S'\xbc\xa2\xfcoi9\x11\xc0'
tRp1905
ss(g16
g2
g2
g90
tp1906
(dp1907
I0
I0
sI20
I0
sI-45
I0
sI-20
I0
sI45
I0
ss(g16
g16
g4
g38
tp1908
(dp1909
I0
g8
(g10
S'\xd2\xf2\x18\xdb9\x0e\xe8\xbf'
tRp1910
sI20
g8
(g10
S'\xac\xe8\x0c\x00\xc4\x9d\xec\xbf'
tRp1911
sI-45
g8
(g10
S' [$\xc53\xd7\xf5\xbf'
tRp1912
sI-20
g8
(g10
S'[d\x05&8\x0f\xf0\xbf'
tRp1913
sI45
g8
(g10
S'\x18ExT\xdd\xee\xe8\xbf'
tRp1914
ss(g16
g3
g2
g46
tp1915
(dp1916
I0
g8
(g10
S'h\xb9\xb5\xf5\x1cx\xcd\xbf'
tRp1917
sI20
g8
(g10
S'\x1a\xcaM\xcfA\x01\x08@'
tRp1918
sI-45
g8
(g10
S'\x9d\xa9\x89\xe53e\xe9\xbf'
tRp1919
sI-20
g8
(g10
S'\x01\x99\x89\x1b\xc6Y\xe3\xbf'
tRp1920
sI45
g8
(g10
S':\xe0\xe2!|;\xef\xbf'
tRp1921
ss(g16
g3
g2
g17
tp1922
(dp1923
I0
I0
sI20
I0
sI-45
I0
sI-20
I0
sI45
I0
ss(g16
g16
g4
g5
tp1924
(dp1925
I0
g8
(g10
S'\x02N\xf5\xcc\xddM\xe4\xbf'
tRp1926
sI20
g8
(g10
S'`C\x16\xae\xf8\x80\xed\xbf'
tRp1927
sI-45
g8
(g10
S'TwTPf\x0c\xed\xbf'
tRp1928
sI-20
g8
(g10
S'\xdc\x97WX#g\xe5\xbf'
tRp1929
sI45
g8
(g10
S'\x95\x16\xc1"iJ\xc9\xbf'
tRp1930
ss(g4
g16
g3
g102
tp1931
(dp1932
I0
I0
sI20
I0
sI-45
I0
sI-20
I0
sI45
I0
ss(g2
g35
g3
g32
tp1933
(dp1934
I0
I0
sI20
g8
(g10
S'\xe6\x9di\x8d,\xfb\xd7\xbf'
tRp1935
sI-45
I0
sI-20
I0
sI45
g8
(g10
S'\xa7?<%\x8f\xe5\xc5\xbf'
tRp1936
ss(g16
g3
g16
g38
tp1937
(dp1938
I0
g8
(g10
S'&w\x1aG\xaa\xd4\x04\xc0'
tRp1939
sI20
g8
(g10
S'\\\xbd8\rA\x0b\t\xc0'
tRp1940
sI-45
g8
(g10
S'\xeb\x05\xba\x13F(\t\xc0'
tRp1941
sI-20
g8
(g10
S'o/\xb29\xd0g\x06\xc0'
tRp1942
sI45
g8
(g10
S' \xc5\nk\xf3\xa2\xf6\xbf'
tRp1943
ss(g4
g4
g4
g5
tp1944
(dp1945
I0
I0
sI20
I0
sI-45
I0
sI-20
I0
sI45
I0
ss(g2
g4
g35
g102
tp1946
(dp1947
I0
I0
sI20
I0
sI-45
I0
sI-20
I0
sI45
I0
ss(g4
g35
g16
g24
tp1948
(dp1949
I0
I0
sI20
I0
sI-45
I0
sI-20
I0
sI45
I0
ss(g2
g2
g35
g5
tp1950
(dp1951
I0
g8
(g10
S'\x97\xef\xbb^}*\x10\xc0'
tRp1952
sI20
g8
(g10
S'\x98\x15\x8f|\xf7\x88\x10\xc0'
tRp1953
sI-45
g8
(g10
S'sa\x10w<?\x10\xc0'
tRp1954
sI-20
g8
(g10
S'pKW\xd2\x86\xc0\t\xc0'
tRp1955
sI45
g8
(g10
S'\xf6?(d\xb1$\x10\xc0'
tRp1956
ss(g2
g3
g4
g46
tp1957
(dp1958
I0
g8
(g10
S'Q/\x14\xdcM\xca\x01@'
tRp1959
sI20
g8
(g10
S'\xe7l\xc6\xfd\xfdT\xfa?'
tRp1960
sI-45
g8
(g10
S'KP\xe2\xce\xe9{\x10@'
tRp1961
sI-20
g8
(g10
S'Z\x1102\xa4\xf2\xdd?'
tRp1962
sI45
g8
(g10
S'P`\x01\xf2\xeb\xa2\xfd?'
tRp1963
ss(g2
g16
g2
g71
tp1964
(dp1965
I0
g8
(g10
S'\xfc#\xfd\xf9\xdb\x18\x00\xc0'
tRp1966
sI20
g8
(g10
S'O\x0e\xcf\xbaI\x88\xfe\xbf'
tRp1967
sI-45
g8
(g10
S'\x91\x8dfk\xa85\x03\xc0'
tRp1968
sI-20
g8
(g10
S'\xb6>$\xd9aK\xfb\xbf'
tRp1969
sI45
g8
(g10
S't\xd6k)\xd5\xf3\xff\xbf'
tRp1970
ss(g2
g4
g2
g24
tp1971
(dp1972
I0
I0
sI20
I0
sI-45
g8
(g10
S'~\xd2j\xfb\xa8\xff\xe2\xbf'
tRp1973
sI-20
g8
(g10
S'\xd3;\xbd\xbd\\\xcd\xe2\xbf'
tRp1974
sI45
I0
ss(g2
g3
g2
g102
tp1975
(dp1976
I0
I0
sI20
I0
sI-45
I0
sI-20
I0
sI45
I0
ss(g4
g35
g3
g24
tp1977
(dp1978
I0
I0
sI20
I0
sI-45
I0
sI-20
I0
sI45
I0
ss(g4
g16
g2
g5
tp1979
(dp1980
I0
I0
sI20
I0
sI-45
I0
sI-20
I0
sI45
I0
ss(g16
g16
g16
g17
tp1981
(dp1982
I0
I0
sI20
I0
sI-45
I0
sI-20
I0
sI45
I0
ss(g4
g16
g16
g90
tp1983
(dp1984
I0
I0
sI20
I0
sI-45
I0
sI-20
I0
sI45
I0
ss(g16
g3
g16
g32
tp1985
(dp1986
I0
I0
sI20
I0
sI-45
I0
sI-20
I0
sI45
I0
ss(g4
g3
g35
g38
tp1987
(dp1988
I0
I0
sI20
I0
sI-45
I0
sI-20
I0
sI45
I0
ss(g2
g2
g3
g90
tp1989
(dp1990
I0
I0
sI20
I0
sI-45
I0
sI-20
I0
sI45
I0
ss(g4
g35
g3
g102
tp1991
(dp1992
I0
I0
sI20
I0
sI-45
I0
sI-20
I0
sI45
I0
ss(g4
g35
g16
g46
tp1993
(dp1994
I0
I0
sI20
I0
sI-45
I0
sI-20
I0
sI45
I0
ss(g4
g4
g4
g46
tp1995
(dp1996
I0
I0
sI20
I0
sI-45
I0
sI-20
I0
sI45
I0
ss(g4
g4
g2
g5
tp1997
(dp1998
I0
I0
sI20
I0
sI-45
I0
sI-20
I0
sI45
I0
ss(g4
g3
g3
g32
tp1999
(dp2000
I0
I0
sI20
I0
sI-45
I0
sI-20
I0
sI45
I0
ss(g4
g35
g16
g38
tp2001
(dp2002
I0
I0
sI20
I0
sI-45
I0
sI-20
I0
sI45
I0
ss(g16
g4
g35
g102
tp2003
(dp2004
I0
I0
sI20
I0
sI-45
I0
sI-20
I0
sI45
I0
ss(g2
g2
g3
g46
tp2005
(dp2006
I0
I0
sI20
I0
sI-45
I0
sI-20
I0
sI45
I0
ss(g16
g3
g16
g102
tp2007
(dp2008
I0
I0
sI20
I0
sI-45
I0
sI-20
I0
sI45
I0
ss(g4
g4
g16
g46
tp2009
(dp2010
I0
I0
sI20
I0
sI-45
I0
sI-20
I0
sI45
I0
ss(g16
g16
g16
g5
tp2011
(dp2012
I0
g8
(g10
S'\x100h\xbcp\xb2\x02\xc0'
tRp2013
sI20
g8
(g10
S'\xdc<\xfa\x95\x90@\x01\xc0'
tRp2014
sI-45
g8
(g10
S'\xe3\x185\x12\xc0\xee\x00\xc0'
tRp2015
sI-20
g8
(g10
S'\x90}=\x93\xa8\x8c\x02\xc0'
tRp2016
sI45
g8
(g10
S'\xd0\xc3\xfd\xe9\xbd\xa9\x01\xc0'
tRp2017
ss(g4
g35
g16
g90
tp2018
(dp2019
I0
I0
sI20
I0
sI-45
I0
sI-20
I0
sI45
I0
ss(g16
g16
g3
g71
tp2020
(dp2021
I0
g8
(g10
S'\xc9\x0fe\xaddM\x0c\xc0'
tRp2022
sI20
g8
(g10
S'(\xe9\xda3cR\r\xc0'
tRp2023
sI-45
g8
(g10
S'\xa1\xb7\xe8f\xc3\x7f\r\xc0'
tRp2024
sI-20
g8
(g10
S'\xd4\xba\x9fd\xf9#\x05\xc0'
tRp2025
sI45
g8
(g10
S'\\1\xeb\xe6M\xba\x0c\xc0'
tRp2026
ss(g2
g2
g35
g24
tp2027
(dp2028
I0
I0
sI20
g8
(g10
S'd:2&\x8f\x91\xcb\xbf'
tRp2029
sI-45
I0
sI-20
I0
sI45
g8
(g10
S'\x1a\xb0\xffi\xe9\x95\xe4\xbf'
tRp2030
ss(g2
g35
g35
g102
tp2031
(dp2032
I0
I0
sI20
I0
sI-45
I0
sI-20
I0
sI45
I0
ss(g4
g4
g4
g24
tp2033
(dp2034
I0
I0
sI20
I0
sI-45
I0
sI-20
I0
sI45
I0
ss(g4
g35
g35
g5
tp2035
(dp2036
I0
I0
sI20
I0
sI-45
I0
sI-20
I0
sI45
I0
ss(g2
g2
g4
g32
tp2037
(dp2038
I0
g8
(g10
S'\xbf\xf7z\x1c(w\xd2\xbf'
tRp2039
sI20
g8
(g10
S'\xd2\x93X\xde\xe6&\xcb?'
tRp2040
sI-45
I0
sI-20
g8
(g10
S'~\x15>,\x0e\x9c\xd6\xbf'
tRp2041
sI45
g8
(g10
S'"\xda\xe4\x1f \xde\xd6\xbf'
tRp2042
ss(g16
g16
g35
g46
tp2043
(dp2044
I0
I0
sI20
I0
sI-45
I0
sI-20
I0
sI45
I0
ss(g4
g3
g3
g102
tp2045
(dp2046
I0
I0
sI20
I0
sI-45
I0
sI-20
I0
sI45
I0
ss(g2
g2
g16
g5
tp2047
(dp2048
I0
g8
(g10
S'\xff\xdbx\xa6\xc3\xe5\x10\xc0'
tRp2049
sI20
g8
(g10
S'\xc3\xa8\xee\xa8\x81\xb0\x10\xc0'
tRp2050
sI-45
g8
(g10
S'\x96\x1cS\xdf$\xb2\x0f\xc0'
tRp2051
sI-20
g8
(g10
S'\x92\xdf\xf5W\x99\xdb\x10\xc0'
tRp2052
sI45
g8
(g10
S'L\xeelsJ?\x10\xc0'
tRp2053
ss(g16
g16
g3
g38
tp2054
(dp2055
I0
g8
(g10
S'\x0bw\xd2\xc8\xa4\xb8\xf6\xbf'
tRp2056
sI20
g8
(g10
S'\xaa~"\x13\xbe_\xd5?'
tRp2057
sI-45
g8
(g10
S'\x95\xa0\xc3\xb3GF\xfe\xbf'
tRp2058
sI-20
g8
(g10
S'0%\xbayB(\xf7\xbf'
tRp2059
sI45
g8
(g10
S'@D\x9d\xff@\x8b\xf3\xbf'
tRp2060
ss(g2
g35
g3
g17
tp2061
(dp2062
I0
F1
sI20
I0
sI-45
I0
sI-20
g8
(g10
S'\xc4[-\x1d\x8dM\x07@'
tRp2063
sI45
I0
ss(g16
g3
g3
g5
tp2064
(dp2065
I0
g8
(g10
S'/\xba\xcf KY\x0b\xc0'
tRp2066
sI20
g8
(g10
S'\xc9\x03di\xd12\x0b\xc0'
tRp2067
sI-45
g8
(g10
S'PV\x1c8\xf0\x07\x0b\xc0'
tRp2068
sI-20
g8
(g10
S'ne%\xcd,o\n\xc0'
tRp2069
sI45
g8
(g10
S'\xfapQ\x961\x0c\x0b\xc0'
tRp2070
ss(g2
g4
g16
g38
tp2071
(dp2072
I0
g8
(g10
S'X\xd6\x08f;\x9d\r\xc0'
tRp2073
sI20
g8
(g10
S'2\x91_\xa5\xde\xae\r\xc0'
tRp2074
sI-45
g8
(g10
S'\xaer|\xdeP\x96\x06\xc0'
tRp2075
sI-20
g8
(g10
S'\xfb6\x0clO\xd8\r\xc0'
tRp2076
sI45
g8
(g10
S'\xa8\xddv\xfd\xfb*\r\xc0'
tRp2077
ss(g4
g16
g2
g102
tp2078
(dp2079
I0
I0
sI20
I0
sI-45
I0
sI-20
I0
sI45
I0
ss(g4
g3
g35
g71
tp2080
(dp2081
I0
I0
sI20
I0
sI-45
I0
sI-20
I0
sI45
I0
ss(g16
g16
g2
g32
tp2082
(dp2083
I0
I0
sI20
I0
sI-45
I0
sI-20
I0
sI45
I0
ss(g16
g16
g4
g71
tp2084
(dp2085
I0
g8
(g10
S'\x07\xe2\xc3#\x0cY\xf8\xbf'
tRp2086
sI20
g8
(g10
S'\xb7\xa26OpZ\xf4\xbf'
tRp2087
sI-45
g8
(g10
S'v\x13\x08\xa3v\x85\xf3\xbf'
tRp2088
sI-20
g8
(g10
S'\xf2\xb56\x9fkv\xf8\xbf'
tRp2089
sI45
g8
(g10
S' \xd4"\xf2\xd5p\xf0\xbf'
tRp2090
ss(g4
g3
g2
g46
tp2091
(dp2092
I0
I0
sI20
I0
sI-45
I0
sI-20
I0
sI45
I0
ss(g16
g3
g2
g32
tp2093
(dp2094
I0
I0
sI20
I0
sI-45
I0
sI-20
I0
sI45
I0
ss(g16
g4
g16
g5
tp2095
(dp2096
I0
I0
sI20
I0
sI-45
I0
sI-20
I0
sI45
g8
(g10
S'\xf2k\xf7\xf6\x0fd\xe9\xbf'
tRp2097
ss(g4
g4
g16
g38
tp2098
(dp2099
I0
I0
sI20
I0
sI-45
I0
sI-20
I0
sI45
I0
ss(g2
g4
g3
g71
tp2100
(dp2101
I0
g8
(g10
S'\x93\xb0\x01=gw\x11\xc0'
tRp2102
sI20
g8
(g10
S'\x01\xa1\x180|\xfc\x10\xc0'
tRp2103
sI-45
g8
(g10
S'\x128\xa77\x18t\x11\xc0'
tRp2104
sI-20
g8
(g10
S'\x85-\xdc\xba\x81B\x11\xc0'
tRp2105
sI45
g8
(g10
S'\xce8\x9c\xfd8<\x11\xc0'
tRp2106
ss(g2
g16
g4
g17
tp2107
(dp2108
I0
F1
sI20
g8
(g10
S'8\x1cu(2\xf9\xe7?'
tRp2109
sI-45
I0
sI-20
I0
sI45
F1
ss(g4
g3
g2
g38
tp2110
(dp2111
I0
I0
sI20
I0
sI-45
I0
sI-20
I0
sI45
I0
ss(g2
g4
g35
g38
tp2112
(dp2113
I0
g8
(g10
S'v\xda\x0bX^6\x0f\xc0'
tRp2114
sI20
g8
(g10
S'\xce\xcb\xe3\xf8A|\x0f\xc0'
tRp2115
sI-45
g8
(g10
S'\xf3\xd8\xaf\xde\xef\xea\xfc\xbf'
tRp2116
sI-20
g8
(g10
S'\xcf\xa3a{\x92\xe7\x0f\xc0'
tRp2117
sI45
g8
(g10
S'\xc6w\xb1\xe0\xab\x8c\x10\xc0'
tRp2118
ss(g2
g2
g16
g17
tp2119
(dp2120
I0
I0
sI20
I0
sI-45
I0
sI-20
I0
sI45
I0
ss(g4
g2
g35
g32
tp2121
(dp2122
I0
I0
sI20
I0
sI-45
I0
sI-20
I0
sI45
I0
ss(g2
g35
g4
g90
tp2123
(dp2124
I0
I0
sI20
I0
sI-45
I0
sI-20
I0
sI45
I0
ss(g2
g3
g35
g32
tp2125
(dp2126
I0
I0
sI20
I0
sI-45
I0
sI-20
I0
sI45
I0
ss(g4
g16
g35
g32
tp2127
(dp2128
I0
I0
sI20
I0
sI-45
I0
sI-20
I0
sI45
I0
ss(g2
g4
g4
g71
tp2129
(dp2130
I0
g8
(g10
S'\xa7~z\x85:\xd5\x10\xc0'
tRp2131
sI20
g8
(g10
S'\xf2\xef\xe7\xe6J\x9a\x11\xc0'
tRp2132
sI-45
g8
(g10
S'.v?\xcfHj\x0b\xc0'
tRp2133
sI-20
g8
(g10
S'\x9e\x11o\xac\xbaj\x10\xc0'
tRp2134
sI45
g8
(g10
S'\xbc\x8c\xbfd\xb4\xa4\x10\xc0'
tRp2135
ss(g4
g3
g16
g46
tp2136
(dp2137
I0
I0
sI20
I0
sI-45
I0
sI-20
I0
sI45
I0
ss(g2
g35
g4
g38
tp2138
(dp2139
I0
g8
(g10
S'%\x81\xa9\xff\xfbZ\x0c\xc0'
tRp2140
sI20
g8
(g10
S'\xec\xe1\xe8_\xe4E\x0c\xc0'
tRp2141
sI-45
g8
(g10
S'\xec\x91\xf8\xc2%l\x0c\xc0'
tRp2142
sI-20
g8
(g10
S'!\x8a\x9aH\xfd\xaf\x0b\xc0'
tRp2143
sI45
g8
(g10
S'\xc5U\xcb\xd8\xc6M\x0c\xc0'
tRp2144
ss(g16
g2
g16
g71
tp2145
(dp2146
I0
g8
(g10
S'\xfa\x9aM\x99/x\xe8\xbf'
tRp2147
sI20
I0
sI-45
g8
(g10
S'`\xc5\x0e\x19\xe4k\xc9\xbf'
tRp2148
sI-20
g8
(g10
S'\x93\xa4\xf0`\x1co\xd1\xbf'
tRp2149
sI45
g8
(g10
S',V\xd6A\x17\x0b\xcb\xbf'
tRp2150
ss(g16
g16
g16
g90
tp2151
(dp2152
I0
I0
sI20
I0
sI-45
I0
sI-20
I0
sI45
I0
ss(g2
g4
g4
g38
tp2153
(dp2154
I0
g8
(g10
S'\xf5\xa3\xb9\x10\x04\xd5\x0f\xc0'
tRp2155
sI20
g8
(g10
S'\xc6\x10\xdd\xbd\x9b\n\x0f\xc0'
tRp2156
sI-45
g8
(g10
S'\xd2W\xffai\x90\n\xc0'
tRp2157
sI-20
g8
(g10
S'\x86j\x8d\xa8\x1d<\x0f\xc0'
tRp2158
sI45
g8
(g10
S'0\x9f\xac\xef\x9f,\x0f\xc0'
tRp2159
ss(g2
g35
g4
g5
tp2160
(dp2161
I0
g8
(g10
S'\xf5\xf7\x1e\xf3\x0ew\x10\xc0'
tRp2162
sI20
g8
(g10
S'\xb4\xb8\xad\xdd\xa2\x88\x0f\xc0'
tRp2163
sI-45
g8
(g10
S'\xc4\x86\x89\x06\x97u\x0f\xc0'
tRp2164
sI-20
g8
(g10
S'\x9b\xcb\xf5\xdff\x88\x0f\xc0'
tRp2165
sI45
g8
(g10
S'2G\xe6=\x85J\x0f\xc0'
tRp2166
ss(g4
g3
g4
g24
tp2167
(dp2168
I0
I0
sI20
I0
sI-45
I0
sI-20
I0
sI45
I0
ss(g2
g35
g4
g71
tp2169
(dp2170
I0
g8
(g10
S'fx\x1c@\xe0\xe2\x0f\xc0'
tRp2171
sI20
g8
(g10
S'\x19FR\xd6\x06\xcb\x0e\xc0'
tRp2172
sI-45
g8
(g10
S'\xea/\xa3dG\xd1\x10\xc0'
tRp2173
sI-20
g8
(g10
S'\x1d\x1c\xb8c@\x00\x10\xc0'
tRp2174
sI45
g8
(g10
S'\x0c\xf1w\xb1\xf9\x08\x10\xc0'
tRp2175
ss(g4
g4
g3
g32
tp2176
(dp2177
I0
I0
sI20
I0
sI-45
I0
sI-20
I0
sI45
I0
ss(g16
g4
g3
g24
tp2178
(dp2179
I0
g8
(g10
S'V\xe6M\x9b\xb8m\xf3?'
tRp2180
sI20
g8
(g10
S'\x1a\x11\xd1$&\x9b\xc2\xbf'
tRp2181
sI-45
g8
(g10
S" \xcb'\xe1j=\xf6?"
tRp2182
sI-20
g8
(g10
S'\x88E\x9b\xbc\xce\xee\xdb?'
tRp2183
sI45
g8
(g10
S')\x07\x1czl\x04\xd0?'
tRp2184
ss(g4
g3
g16
g90
tp2185
(dp2186
I0
I0
sI20
I0
sI-45
I0
sI-20
I0
sI45
I0
ss(g4
g3
g16
g24
tp2187
(dp2188
I0
I0
sI20
I0
sI-45
I0
sI-20
I0
sI45
I0
ss(g16
g2
g3
g102
tp2189
(dp2190
I0
I0
sI20
I0
sI-45
I0
sI-20
I0
sI45
I0
ss(g2
g3
g4
g17
tp2191
(dp2192
I0
g8
(g10
S'\xce$0\x17\xed5\x04@'
tRp2193
sI20
g8
(g10
S'\xe0\xb1q@1\x9c\x01@'
tRp2194
sI-45
g8
(g10
S';A\x16\x7f&\x18\x11@'
tRp2195
sI-20
g8
(g10
S'!\x1bA#\xc6\x9c\xff?'
tRp2196
sI45
g8
(g10
S'\xb8R\xd5\xfc\x84_\t@'
tRp2197
ss(g2
g16
g35
g102
tp2198
(dp2199
I0
I0
sI20
I0
sI-45
I0
sI-20
I0
sI45
I0
ss(g2
g4
g4
g46
tp2200
(dp2201
I0
g8
(g10
S'\xd7\xe2\xb1\\@\x92\xdd\xbf'
tRp2202
sI20
g8
(g10
S'\xedN\xf1H\xdd(\xf9?'
tRp2203
sI-45
g8
(g10
S'X\xc2\xb0\xf9\xa0\x9b\xd2\xbf'
tRp2204
sI-20
g8
(g10
S'\x84\x95[h\x13{\xf8\xbf'
tRp2205
sI45
g8
(g10
S'\x86\xbc\xc7R\xfb\xc4\xe3\xbf'
tRp2206
ss(g2
g3
g4
g24
tp2207
(dp2208
I0
g8
(g10
S'\xe5,~>[\xf3\xf3\xbf'
tRp2209
sI20
g8
(g10
S'\x14\x98\xdf(\xc4\x08\x03\xc0'
tRp2210
sI-45
g8
(g10
S'\\\xd8\xe6\x98\xd5X\xfb\xbf'
tRp2211
sI-20
g8
(g10
S'\x86\x00\xdc\xe0\xf3]\x01\xc0'
tRp2212
sI45
g8
(g10
S'Juk\xd6\xcb\xf6\xed\xbf'
tRp2213
ss(g2
g4
g3
g90
tp2214
(dp2215
I0
I0
sI20
I0
sI-45
I0
sI-20
I0
sI45
I0
ss(g16
g4
g16
g38
tp2216
(dp2217
I0
g8
(g10
S'5\xee\xb8\x036\xfa\xde\xbf'
tRp2218
sI20
g8
(g10
S'5\xc5s\x14\xd4\xa0\xd8\xbf'
tRp2219
sI-45
g8
(g10
S'\xffm\xc9\xff\x1d$\xe2\xbf'
tRp2220
sI-20
g8
(g10
S'\x17!\x07\x97\x88\xf2\xe5\xbf'
tRp2221
sI45
g8
(g10
S'3\x0e\xea%w7\xc8\xbf'
tRp2222
ss(g16
g2
g35
g71
tp2223
(dp2224
I0
I0
sI20
I0
sI-45
I0
sI-20
I0
sI45
I0
ss(g4
g4
g4
g38
tp2225
(dp2226
I0
I0
sI20
I0
sI-45
I0
sI-20
I0
sI45
I0
ss(g2
g3
g3
g32
tp2227
(dp2228
I0
I0
sI20
I0
sI-45
I0
sI-20
I0
sI45
I0
ss(g2
g3
g2
g32
tp2229
(dp2230
I0
I0
sI20
I0
sI-45
I0
sI-20
I0
sI45
I0
ss(g2
g3
g3
g5
tp2231
(dp2232
I0
g8
(g10
S'\x0bT\x05.\xd8\xf7\x10\xc0'
tRp2233
sI20
g8
(g10
S'\x85S8\xa6&\x94\x10\xc0'
tRp2234
sI-45
g8
(g10
S'\x92\xacJ\x87p\xa6\x10\xc0'
tRp2235
sI-20
g8
(g10
S'\xb1U\x9b\xc7.\xb9\x10\xc0'
tRp2236
sI45
g8
(g10
S'6\xa7\xc64\x97\x94\x10\xc0'
tRp2237
ss(g16
g3
g3
g102
tp2238
(dp2239
I0
I0
sI20
I0
sI-45
I0
sI-20
I0
sI45
g8
(g10
S'\xf7\xb9\xfal|0\xca?'
tRp2240
ss(g2
g2
g35
g38
tp2241
(dp2242
I0
g8
(g10
S'\xbc\xff=\x9d\xf6A\x11\xc0'
tRp2243
sI20
g8
(g10
S'\xf9\xf4\xf3\xe5\x9cJ\x10\xc0'
tRp2244
sI-45
g8
(g10
S'M\xccM\xcec\xa6\x0f\xc0'
tRp2245
sI-20
g8
(g10
S'\x0e\xcc\xcb\x12\x1f\xc2\x0e\xc0'
tRp2246
sI45
g8
(g10
S'\x96\xc0~\x8d\xbd\x8f\x0f\xc0'
tRp2247
ss(g2
g2
g4
g71
tp2248
(dp2249
I0
g8
(g10
S'\x00\x0cUHS$\x0f\xc0'
tRp2250
sI20
g8
(g10
S'u {\x8aU2\x11\xc0'
tRp2251
sI-45
g8
(g10
S'4\xf3-\x14\xb7\xed\x10\xc0'
tRp2252
sI-20
g8
(g10
S'\xd0\xf8\xe3 \x01\x19\x11\xc0'
tRp2253
sI45
g8
(g10
S'+u\xc7\xb4\x1dt\x0b\xc0'
tRp2254
ss(g16
g4
g16
g71
tp2255
(dp2256
I0
g8
(g10
S'4[\xfc\xd3\x9cI\xd5\xbf'
tRp2257
sI20
g8
(g10
S'\xc7\xa8\x05j\xe9\x15\xee\xbf'
tRp2258
sI-45
g8
(g10
S'\x18\x1a\x1e\x9f\x8d\n\xe6\xbf'
tRp2259
sI-20
g8
(g10
S'\xbe[\xc2\xad\xbdY\xc9\xbf'
tRp2260
sI45
g8
(g10
S'\xeb\xe7p\xcfX\x15\xf0\xbf'
tRp2261
ss(g16
g3
g35
g24
tp2262
(dp2263
I0
g8
(g10
S'\x814{0\xe7E\xf7\xbf'
tRp2264
sI20
g8
(g10
S'I\x91e\xe6g\xd5\xe0?'
tRp2265
sI-45
g8
(g10
S'd\xeb\x9f\xa5\xce\x15\xf6\xbf'
tRp2266
sI-20
g8
(g10
S'A%\xa9:x\xf8\xf5\xbf'
tRp2267
sI45
g8
(g10
S'\x1b\xe6^\xd7\xff\xb7\xf8\xbf'
tRp2268
ss(g2
g4
g16
g24
tp2269
(dp2270
I0
g8
(g10
S'\x17\x03\xce\x93\xf3\xae\xd2\xbf'
tRp2271
sI20
g8
(g10
S'"6A\xc0\xa1\xda\xe9\xbf'
tRp2272
sI-45
g8
(g10
S'\xcc:\x9b\x84*\xc7\xda\xbf'
tRp2273
sI-20
I0
sI45
g8
(g10
S'\xa4\x83\xcc\x86\x9c&\xed\xbf'
tRp2274
ss(g16
g16
g3
g24
tp2275
(dp2276
I0
g8
(g10
S'0\x8cF\x01\xe3\xac\xa6\xbf'
tRp2277
sI20
g8
(g10
S'?g@\xc8\xfd\x9e\xde?'
tRp2278
sI-45
g8
(g10
S'\xfe\xc8d\xab\x08\xd3\xe4?'
tRp2279
sI-20
g8
(g10
S'"\xe1\xac+\x8e\xa2\xec?'
tRp2280
sI45
g8
(g10
S'\xb6f\xd7a\xcf\x8e\xe2?'
tRp2281
ss.