(dp1
(S'Close'
p2
S'Too Far'
p3
S'OK'
p4
S'Bottom'
p5
tp6
(dp7
I0
cnumpy.core.multiarray
scalar
p8
(cnumpy
dtype
p9
(S'f8'
I0
I1
tRp10
(I3
S'<'
NNNI-1
I-1
I0
tbS'\xd5\xb6\xe5\x0c\xe8\x89\x12\xc0'
tRp11
sI20
g8
(g10
S'b\x1b?\xeb\x84\x8b\x12\xc0'
tRp12
sI-45
g8
(g10
S'\x93(}\x91t\x9f\x12\xc0'
tRp13
sI-20
g8
(g10
S'_\xc3\xf15\x98\x01\x13\xc0'
tRp14
sI45
g8
(g10
S'\xf2:\xaf\xbbb\xd2\x11\xc0'
tRp15
ss(g2
g4
S'Far'
p16
S'Close Front'
p17
tp18
(dp19
I0
F1.8
sI20
I0
sI-45
F1
sI-20
F1.8
sI45
I0
ss(g4
g2
g3
g17
tp20
(dp21
I0
I0
sI20
I0
sI-45
I0
sI-20
I0
sI45
I0
ss(g16
g16
g3
g17
tp22
(dp23
I0
I0
sI20
I0
sI-45
I0
sI-20
I0
sI45
I0
ss(g16
g3
g4
S'Front'
p24
tp25
(dp26
I0
g8
(g10
S'07t\xda?\xf5\xca\xbf'
tRp27
sI20
g8
(g10
S'O\xc1t\xdd\xae%\xec\xbf'
tRp28
sI-45
g8
(g10
S'\xb1.\xc5 \xe2\xd1\xdb\xbf'
tRp29
sI-20
g8
(g10
S'u\x11F\\u\xd4\xd1\xbf'
tRp30
sI45
g8
(g10
S'e\xb7X\xcc\x17\xf4\xdf\xbf'
tRp31
ss(g4
g4
g2
S'Close Left'
p32
tp33
(dp34
I0
I0
sI20
I0
sI-45
I0
sI-20
I0
sI45
I0
ss(g4
g16
S'Too Close'
p35
g17
tp36
(dp37
I0
I0
sI20
I0
sI-45
I0
sI-20
I0
sI45
I0
ss(g2
g2
g2
S'Left'
p38
tp39
(dp40
I0
g8
(g10
S'\xc7\x84/8r]\x10\xc0'
tRp41
sI20
g8
(g10
S'\xe5\xa12\x98\xc2\xce\x11\xc0'
tRp42
sI-45
g8
(g10
S'\x9c\xda\xf7\xda\xc1\x97\x08\xc0'
tRp43
sI-20
g8
(g10
S'v\x0bO\xc8\xe5k\x12\xc0'
tRp44
sI45
g8
(g10
S')j\xe9\xcb\xf2\xfe\x12\xc0'
tRp45
ss(g4
g2
g2
S'Close Right'
p46
tp47
(dp48
I0
I0
sI20
I0
sI-45
I0
sI-20
I0
sI45
I0
ss(g4
g35
g4
g5
tp49
(dp50
I0
I0
sI20
I0
sI-45
I0
sI-20
I0
sI45
I0
ss(g2
g3
g16
g17
tp51
(dp52
I0
g8
(g10
S'\x0e@Pt\x05g\t@'
tRp53
sI20
I0
sI-45
F1
sI-20
g8
(g10
S'\xb9s(\x1a\xec\xeb\xf5?'
tRp54
sI45
g8
(g10
S'"\x8a\x0cI\xa7\x9d\xd1?'
tRp55
ss(g2
g4
g16
g46
tp56
(dp57
I0
I0
sI20
I0
sI-45
I0
sI-20
I0
sI45
I0
ss(g2
g3
g16
g24
tp58
(dp59
I0
g8
(g10
S'!i\xcb\xa2\x928\x02\xc0'
tRp60
sI20
g8
(g10
S'\xac\xc8\x92g\xfa(\x03\xc0'
tRp61
sI-45
g8
(g10
S'\x18\xea\xf57\x90\xc7\x01\xc0'
tRp62
sI-20
g8
(g10
S'.\x123\x9f)\xd0\x01\xc0'
tRp63
sI45
g8
(g10
S'_\x05\xac\x13|4\xee\xbf'
tRp64
ss(g4
g3
g35
g46
tp65
(dp66
I0
I0
sI20
I0
sI-45
I0
sI-20
I0
sI45
I0
ss(g4
g16
g4
g32
tp67
(dp68
I0
I0
sI20
I0
sI-45
I0
sI-20
I0
sI45
I0
ss(g4
g2
g35
g38
tp69
(dp70
I0
I0
sI20
I0
sI-45
I0
sI-20
I0
sI45
I0
ss(g16
g16
g16
S'Right'
p71
tp72
(dp73
I0
g8
(g10
S'f@K\xca\xe0t\xff\xbf'
tRp74
sI20
g8
(g10
S'ij\x93E\xbf\x14\xfa\xbf'
tRp75
sI-45
g8
(g10
S'\x03\x11\xbe"\x1bm\xf8\xbf'
tRp76
sI-20
g8
(g10
S'\x08\xab\xeb>\xb8,\xfb\xbf'
tRp77
sI45
g8
(g10
S'\xca\\\x8a\xd3\x7f\xca\xf8\xbf'
tRp78
ss(g4
g2
g4
g24
tp79
(dp80
I0
I0
sI20
I0
sI-45
I0
sI-20
I0
sI45
I0
ss(g4
g35
g2
g24
tp81
(dp82
I0
I0
sI20
I0
sI-45
I0
sI-20
I0
sI45
I0
ss(g2
g16
g35
g38
tp83
(dp84
I0
g8
(g10
S'B\xa5\xa55R\xed\x0e\xc0'
tRp85
sI20
g8
(g10
S'\xf3H\xa9"\xf7)\x0f\xc0'
tRp86
sI-45
g8
(g10
S'\x84<\xfd\xe0!\xf9\x0e\xc0'
tRp87
sI-20
g8
(g10
S'\xb2\xa7\x89\xd3\xe1a\x10\xc0'
tRp88
sI45
g8
(g10
S'J\xcaFx\xd2\xa0\x0f\xc0'
tRp89
ss(g4
g2
g2
S'Close Bottom'
p90
tp91
(dp92
I0
I0
sI20
I0
sI-45
I0
sI-20
I0
sI45
I0
ss(g4
g2
g2
g24
tp93
(dp94
I0
I0
sI20
I0
sI-45
I0
sI-20
I0
sI45
I0
ss(g2
g16
g3
g71
tp95
(dp96
I0
g8
(g10
S'\xe1\xe4\x18\xf2~\x97\x11\xc0'
tRp97
sI20
g8
(g10
S'\x83\x85\x0f\xe3p\x93\x12\xc0'
tRp98
sI-45
g8
(g10
S"\xc3'\x8bd4x\x12\xc0"
tRp99
sI-20
g8
(g10
S'\xab\x93\xd8\xb6\xadx\x12\xc0'
tRp100
sI45
g8
(g10
S'\xce\x07\x0fU\xd2\xa1\x12\xc0'
tRp101
ss(g16
g3
g4
S'Tagged'
p102
tp103
(dp104
I0
I0
sI20
I0
sI-45
I0
sI-20
I0
sI45
I0
ss(g2
g16
g2
g90
tp105
(dp106
I0
I0
sI20
I0
sI-45
I0
sI-20
I0
sI45
I0
ss(g2
g2
g35
g71
tp107
(dp108
I0
g8
(g10
S"\xd3\\b\x8e\xcf'\x0e\xc0"
tRp109
sI20
g8
(g10
S'\xcb\xef"\xd6\x1f\xd5\x11\xc0'
tRp110
sI-45
g8
(g10
S'\xbf\x9a\xdf\xb9\xb2\x08\x12\xc0'
tRp111
sI-20
g8
(g10
S'O\xd4\xd7\xaf\x95\x03\x12\xc0'
tRp112
sI45
g8
(g10
S'\xf1\x95\x84\xffsN\x12\xc0'
tRp113
ss(g16
g35
g2
g46
tp114
(dp115
I0
I0
sI20
I0
sI-45
I0
sI-20
I0
sI45
I0
ss(g16
g16
g35
g17
tp116
(dp117
I0
I0
sI20
I0
sI-45
I0
sI-20
I0
sI45
I0
ss(g4
g4
g16
g102
tp118
(dp119
I0
I0
sI20
I0
sI-45
I0
sI-20
I0
sI45
I0
ss(g16
g35
g2
g24
tp120
(dp121
I0
I0
sI20
I0
sI-45
I0
sI-20
I0
sI45
I0
ss(g16
g4
g3
g90
tp122
(dp123
I0
I0
sI20
g8
(g10
S'\x92\x9d\x0bB\xd2\x14\xde?'
tRp124
sI-45
I0
sI-20
I0
sI45
g8
(g10
S'\x08p\x01@yh\xd2\xbf'
tRp125
ss(g4
g2
g16
g71
tp126
(dp127
I0
I0
sI20
I0
sI-45
I0
sI-20
I0
sI45
I0
ss(g2
g35
g3
g71
tp128
(dp129
I0
g8
(g10
S'\xa3|hG\x9aZ\x12\xc0'
tRp130
sI20
g8
(g10
S'J\x8e\xd7\x0c\xd8^\x12\xc0'
tRp131
sI-45
g8
(g10
S'\x08P!\x00g9\x12\xc0'
tRp132
sI-20
g8
(g10
S'\xf0\xf1O%]5\x12\xc0'
tRp133
sI45
g8
(g10
S'E]]yeR\x12\xc0'
tRp134
ss(g16
g4
g3
g102
tp135
(dp136
I0
I0
sI20
I0
sI-45
I0
sI-20
I0
sI45
I0
ss(g2
g3
g2
g90
tp137
(dp138
I0
I0
sI20
I0
sI-45
I0
sI-20
I0
sI45
I0
ss(g16
g3
g35
g90
tp139
(dp140
I0
I0
sI20
I0
sI-45
I0
sI-20
I0
sI45
I0
ss(g4
g3
g4
g32
tp141
(dp142
I0
I0
sI20
I0
sI-45
I0
sI-20
I0
sI45
I0
ss(g16
g16
g35
g38
tp143
(dp144
I0
I0
sI20
I0
sI-45
I0
sI-20
I0
sI45
I0
ss(g4
g3
g4
g46
tp145
(dp146
I0
I0
sI20
I0
sI-45
I0
sI-20
I0
sI45
I0
ss(g16
g4
g2
g5
tp147
(dp148
I0
I0
sI20
I0
sI-45
I0
sI-20
I0
sI45
I0
ss(g16
g16
g2
g90
tp149
(dp150
I0
I0
sI20
I0
sI-45
I0
sI-20
I0
sI45
I0
ss(g16
g4
g2
g90
tp151
(dp152
I0
I0
sI20
I0
sI-45
I0
sI-20
I0
sI45
I0
ss(g16
g35
g35
g38
tp153
(dp154
I0
g8
(g10
S'\xd7N\x87\x12J\x97\xce\xbf'
tRp155
sI20
I0
sI-45
I0
sI-20
I0
sI45
I0
ss(g2
g16
g35
g17
tp156
(dp157
I0
I0
sI20
I0
sI-45
I0
sI-20
I0
sI45
I0
ss(g2
g3
g35
g46
tp158
(dp159
I0
I0
sI20
I0
sI-45
I0
sI-20
I0
sI45
g8
(g10
S'\xbf\xff\x98\xc6\x00v\xc0\xbf'
tRp160
ss(g2
g35
g35
g17
tp161
(dp162
I0
I0
sI20
I0
sI-45
I0
sI-20
I0
sI45
I0
ss(g16
g4
g3
g46
tp163
(dp164
I0
I0
sI20
I0
sI-45
I0
sI-20
I0
sI45
I0
ss(g16
g35
g4
g17
tp165
(dp166
I0
I0
sI20
I0
sI-45
I0
sI-20
I0
sI45
I0
ss(g2
g2
g16
g71
tp167
(dp168
I0
g8
(g10
S'\xee^\xc3\x0e\xbaY\x11\xc0'
tRp169
sI20
g8
(g10
S'F3C\xa5\x8a\xf6\x10\xc0'
tRp170
sI-45
g8
(g10
S'\xebg\xe9{\xea-\x11\xc0'
tRp171
sI-20
g8
(g10
S'\xe3R\x97\xe4*\xf4\x10\xc0'
tRp172
sI45
g8
(g10
S'\xc8\x92\xdc\x16\xa8\x1a\x11\xc0'
tRp173
ss(g2
g35
g2
g90
tp174
(dp175
I0
I0
sI20
g8
(g10
S'\xe8!S\xde\xd9F\xcf\xbf'
tRp176
sI-45
F-0.40000000000000002
sI-20
g8
(g10
S'\x14c\x1eE\x85\xb9\xe6\xbf'
tRp177
sI45
g8
(g10
S'\x82G\xdf\x07\xe1\xd1\xe4\xbf'
tRp178
ss(g16
g4
g4
g71
tp179
(dp180
I0
g8
(g10
S'\x84y~\xb2\xee\xa0\xe7\xbf'
tRp181
sI20
g8
(g10
S'\xed\xad\x9e\x92Z\xcf\xc8\xbf'
tRp182
sI-45
I0
sI-20
I0
sI45
g8
(g10
S'\xddL\x01\x7f\xc7\x8c\xdc\xbf'
tRp183
ss(g2
g16
g2
g102
tp184
(dp185
I0
I0
sI20
I0
sI-45
I0
sI-20
I0
sI45
I0
ss(g2
g4
g4
g24
tp186
(dp187
I0
I0
sI20
I0
sI-45
I0
sI-20
g8
(g10
S'\xfc\xd5eBoW\xca\xbf'
tRp188
sI45
g8
(g10
S'%c\xc2*k\xaa\xd0?'
tRp189
ss(g2
g3
g16
g38
tp190
(dp191
I0
g8
(g10
S'~\xd2d\xe8\xbct\x10\xc0'
tRp192
sI20
g8
(g10
S'UL\x17=a\xc2\x11\xc0'
tRp193
sI-45
g8
(g10
S'JL\x00\x07\x90\x96\x11\xc0'
tRp194
sI-20
g8
(g10
S'\xbf)\xeb\x90\xda>\x12\xc0'
tRp195
sI45
g8
(g10
S'6\xf3\x82ib\xa3\x11\xc0'
tRp196
ss(g16
g16
g2
g46
tp197
(dp198
I0
I0
sI20
I0
sI-45
g8
(g10
S'\x98\xc8\x8bx\xa2\xb9\xd2\xbf'
tRp199
sI-20
g8
(g10
S'(YF\xa5\xc3\xfd\xe7\xbf'
tRp200
sI45
g8
(g10
S'@\xba\xa35\x8d\x0e\xe5\xbf'
tRp201
ss(g16
g3
g4
g90
tp202
(dp203
I0
I0
sI20
g8
(g10
S'\xd4\x99?A\xb3p\xca?'
tRp204
sI-45
I0
sI-20
I0
sI45
g8
(g10
S'\x1b_\xb3\x1c\xbc-\xe2\xbf'
tRp205
ss(g2
g4
g3
g38
tp206
(dp207
I0
g8
(g10
S'6\xf3\x06\x12[\xf5\x0c\xc0'
tRp208
sI20
g8
(g10
S'\x02\xf1G\xbd\x06\xb7\n\xc0'
tRp209
sI-45
g8
(g10
S'H\xcfL#oP\x0c\xc0'
tRp210
sI-20
g8
(g10
S'L_\xb8z]\x0f\r\xc0'
tRp211
sI45
g8
(g10
S'\x8e\xe4q\xfc\x14<\x0c\xc0'
tRp212
ss(g16
g35
g16
g102
tp213
(dp214
I0
I0
sI20
I0
sI-45
I0
sI-20
I0
sI45
I0
ss(g2
g4
g4
g17
tp215
(dp216
I0
I0
sI20
I0
sI-45
I0
sI-20
I0
sI45
g8
(g10
S'"X\x99o\xedn\xe0?'
tRp217
ss(g4
g4
g3
g24
tp218
(dp219
I0
I0
sI20
I0
sI-45
I0
sI-20
I0
sI45
I0
ss(g2
g35
g2
g5
tp220
(dp221
I0
g8
(g10
S'\xf5:\xbf\xc8V\xc9\x10\xc0'
tRp222
sI20
g8
(g10
S'\x0c\x06\xc2\xc9e\xbb\x12\xc0'
tRp223
sI-45
g8
(g10
S'\xb1N]e\x94Q\x12\xc0'
tRp224
sI-20
g8
(g10
S'`\x058g\x94\x02\x12\xc0'
tRp225
sI45
g8
(g10
S'\\\xd9P:\x01\x80\x12\xc0'
tRp226
ss(g4
g2
g4
g90
tp227
(dp228
I0
I0
sI20
I0
sI-45
I0
sI-20
I0
sI45
I0
ss(g16
g35
g2
g32
tp229
(dp230
I0
I0
sI20
I0
sI-45
I0
sI-20
I0
sI45
I0
ss(g2
g35
g35
g5
tp231
(dp232
I0
g8
(g10
S'~\xcb\x0e\xda\x83\xe5\x0f\xc0'
tRp233
sI20
g8
(g10
S'o`\xde\xd9w\x9f\x10\xc0'
tRp234
sI-45
g8
(g10
S'\x1c\x1fL\xb6\xc8\x18\x11\xc0'
tRp235
sI-20
g8
(g10
S'Z\xb0\x97\xdd\xee\xd7\x10\xc0'
tRp236
sI45
g8
(g10
S'\x97b\xa6\x84\xdf\xb0\x10\xc0'
tRp237
ss(g16
g2
g2
g5
tp238
(dp239
I0
I0
sI20
I0
sI-45
I0
sI-20
I0
sI45
I0
ss(g16
g16
g2
g71
tp240
(dp241
I0
I0
sI20
I0
sI-45
I0
sI-20
I0
sI45
I0
ss(g4
g35
g3
g71
tp242
(dp243
I0
I0
sI20
I0
sI-45
I0
sI-20
I0
sI45
I0
ss(g4
g4
g35
g17
tp244
(dp245
I0
I0
sI20
I0
sI-45
I0
sI-20
I0
sI45
I0
ss(g16
g35
g4
g5
tp246
(dp247
I0
I0
sI20
I0
sI-45
I0
sI-20
I0
sI45
I0
ss(g16
g2
g2
g38
tp248
(dp249
I0
I0
sI20
I0
sI-45
I0
sI-20
I0
sI45
I0
ss(g4
g2
g35
g71
tp250
(dp251
I0
I0
sI20
I0
sI-45
I0
sI-20
I0
sI45
I0
ss(g16
g35
g16
g32
tp252
(dp253
I0
I0
sI20
I0
sI-45
I0
sI-20
I0
sI45
I0
ss(g4
g3
g3
g90
tp254
(dp255
I0
I0
sI20
I0
sI-45
I0
sI-20
I0
sI45
I0
ss(g16
g3
g4
g46
tp256
(dp257
I0
g8
(g10
S'\xfavU$\x00\xbc\xd0\xbf'
tRp258
sI20
g8
(g10
S'\x80\x85.\x8bE\xdb\xe5\xbf'
tRp259
sI-45
g8
(g10
S' EE\xc2hX\xcf\xbf'
tRp260
sI-20
g8
(g10
S'\x82\x10^`<3\xe8\xbf'
tRp261
sI45
g8
(g10
S'\xa0:\x12\x96o\xc8\xd2?'
tRp262
ss(g2
g2
g16
g46
tp263
(dp264
I0
I0
sI20
I0
sI-45
I0
sI-20
I0
sI45
I0
ss(g4
g35
g35
g32
tp265
(dp266
I0
I0
sI20
I0
sI-45
I0
sI-20
I0
sI45
I0
ss(g2
g4
g2
g46
tp267
(dp268
I0
g8
(g10
S'R\xf4a0U3\xc0\xbf'
tRp269
sI20
g8
(g10
S'\xa9`\x1fw\xf4r\xd2\xbf'
tRp270
sI-45
I0
sI-20
F1.8
sI45
g8
(g10
S'\x80\xdc\xe2\x12\x91\xb6\xa7\xbf'
tRp271
ss(g4
g2
g4
g102
tp272
(dp273
I0
I0
sI20
I0
sI-45
I0
sI-20
I0
sI45
I0
ss(g4
g35
g16
g102
tp274
(dp275
I0
I0
sI20
I0
sI-45
I0
sI-20
I0
sI45
I0
ss(g16
g4
g35
g71
tp276
(dp277
I0
I0
sI20
I0
sI-45
I0
sI-20
I0
sI45
I0
ss(g2
g35
g35
g38
tp278
(dp279
I0
g8
(g10
S'\xedq\xc4\x90\xfd\xce\x10\xc0'
tRp280
sI20
g8
(g10
S'\x1cE\x9f_\x02V\x03\xc0'
tRp281
sI-45
g8
(g10
S'\x92\xe6\x8f\x07d\xfa\x11\xc0'
tRp282
sI-20
g8
(g10
S'6\xe5\x18Ky\xcb\x08\xc0'
tRp283
sI45
g8
(g10
S'RIdB\xc5~\x10\xc0'
tRp284
ss(g2
g35
g16
g17
tp285
(dp286
I0
I0
sI20
I0
sI-45
I0
sI-20
I0
sI45
I0
ss(g16
g2
g2
g17
tp287
(dp288
I0
I0
sI20
I0
sI-45
I0
sI-20
I0
sI45
I0
ss(g16
g16
g4
g32
tp289
(dp290
I0
I0
sI20
I0
sI-45
I0
sI-20
I0
sI45
I0
ss(g4
g35
g4
g38
tp291
(dp292
I0
I0
sI20
I0
sI-45
I0
sI-20
I0
sI45
I0
ss(g4
g4
g2
g46
tp293
(dp294
I0
I0
sI20
I0
sI-45
I0
sI-20
I0
sI45
I0
ss(g4
g16
g16
g32
tp295
(dp296
I0
I0
sI20
I0
sI-45
I0
sI-20
I0
sI45
I0
ss(g4
g3
g35
g17
tp297
(dp298
I0
I0
sI20
I0
sI-45
I0
sI-20
I0
sI45
I0
ss(g16
g4
g4
g46
tp299
(dp300
I0
I0
sI20
I0
sI-45
I0
sI-20
I0
sI45
I0
ss(g4
g16
g35
g46
tp301
(dp302
I0
I0
sI20
I0
sI-45
I0
sI-20
I0
sI45
I0
ss(g2
g3
g4
g102
tp303
(dp304
I0
I0
sI20
I0
sI-45
I0
sI-20
I0
sI45
I0
ss(g2
g3
g2
g24
tp305
(dp306
I0
g8
(g10
S'v\x86\x81\xb4:\xdf\x0e\xc0'
tRp307
sI20
g8
(g10
S'\xe7\x1b;\xed\xca\x12\x02\xc0'
tRp308
sI-45
g8
(g10
S'A\x8a\xe1\x06(s\r\xc0'
tRp309
sI-20
g8
(g10
S'\x97\xe1\xd5\xcde\xe1\x0e\xc0'
tRp310
sI45
g8
(g10
S'\x15_\xfb\xa6R\\\x0e\xc0'
tRp311
ss(g2
g35
g2
g24
tp312
(dp313
I0
g8
(g10
S'\x90\xef\x11\x9e\x1d\x8a\xd4\xbf'
tRp314
sI20
g8
(g10
S'\xc7\xe2\xbe\xb8\xc5\x7f\xcf\xbf'
tRp315
sI-45
I0
sI-20
I0
sI45
g8
(g10
S'j\xac\x91\x1e\xf6\xf0\xd1\xbf'
tRp316
ss(g16
g16
g4
g102
tp317
(dp318
I0
I0
sI20
I0
sI-45
I0
sI-20
I0
sI45
I0
ss(g16
g2
g35
g38
tp319
(dp320
I0
I0
sI20
I0
sI-45
I0
sI-20
I0
sI45
I0
ss(g4
g2
g4
g71
tp321
(dp322
I0
I0
sI20
I0
sI-45
I0
sI-20
I0
sI45
I0
ss(g4
g4
g3
g71
tp323
(dp324
I0
I0
sI20
I0
sI-45
I0
sI-20
I0
sI45
I0
ss(g4
g4
g2
g90
tp325
(dp326
I0
I0
sI20
I0
sI-45
I0
sI-20
I0
sI45
I0
ss(g2
g16
g16
g32
tp327
(dp328
I0
I0
sI20
I0
sI-45
I0
sI-20
I0
sI45
I0
ss(g16
g2
g35
g5
tp329
(dp330
I0
I0
sI20
I0
sI-45
I0
sI-20
I0
sI45
I0
ss(g16
g4
g4
g5
tp331
(dp332
I0
I0
sI20
I0
sI-45
I0
sI-20
I0
sI45
I0
ss(g16
g35
g35
g32
tp333
(dp334
I0
I0
sI20
I0
sI-45
I0
sI-20
I0
sI45
I0
ss(g16
g4
g4
g90
tp335
(dp336
I0
I0
sI20
I0
sI-45
I0
sI-20
g8
(g10
S'\xad\x82\xa4\xa0\xba{\xc9\xbf'
tRp337
sI45
I0
ss(g16
g2
g4
g90
tp338
(dp339
I0
I0
sI20
I0
sI-45
I0
sI-20
I0
sI45
g8
(g10
S'\xfa\xe1t\x0b\x0c\x91\xdd?'
tRp340
ss(g16
g4
g4
g38
tp341
(dp342
I0
g8
(g10
S'\x8f\xdf\xe6\xa2z\x17\xd2\xbf'
tRp343
sI20
g8
(g10
S'\x8e\xd1\x84f\x1c\x18\xd6\xbf'
tRp344
sI-45
g8
(g10
S'\x92\xf9\xc9\xef\xfeu\xd8\xbf'
tRp345
sI-20
g8
(g10
S'\xb5D\xf3\x11Zh\xd7\xbf'
tRp346
sI45
g8
(g10
S'2,\xd9\xff\xf6E\xca\xbf'
tRp347
ss(g2
g35
g3
g46
tp348
(dp349
I0
I0
sI20
I0
sI-45
I0
sI-20
I0
sI45
I0
ss(g4
g35
g16
g32
tp350
(dp351
I0
I0
sI20
I0
sI-45
I0
sI-20
I0
sI45
I0
ss(g16
g3
g16
g90
tp352
(dp353
I0
I0
sI20
I0
sI-45
I0
sI-20
I0
sI45
I0
ss(g16
g16
g16
g46
tp354
(dp355
I0
I0
sI20
I0
sI-45
I0
sI-20
I0
sI45
I0
ss(g16
g16
g35
g24
tp356
(dp357
I0
I0
sI20
I0
sI-45
I0
sI-20
I0
sI45
I0
ss(g4
g2
g3
g102
tp358
(dp359
I0
I0
sI20
I0
sI-45
I0
sI-20
I0
sI45
I0
ss(g4
g3
g2
g24
tp360
(dp361
I0
I0
sI20
I0
sI-45
I0
sI-20
I0
sI45
I0
ss(g2
g2
g3
g17
tp362
(dp363
I0
g8
(g10
S'\xa9\xc1?\xf6\xd2\xb9\xd2\xbf'
tRp364
sI20
g8
(g10
S'\xfc\xd3\xb5\xb5%O\x03@'
tRp365
sI-45
F1
sI-20
I0
sI45
I0
ss(g2
g4
g2
g71
tp366
(dp367
I0
g8
(g10
S'lm\xf6\x7fg\xd4\x0c\xc0'
tRp368
sI20
g8
(g10
S',\xa0\xa8\xb6<"\r\xc0'
tRp369
sI-45
g8
(g10
S'\xb6>\xd2\x03\xb6\xb4\x0c\xc0'
tRp370
sI-20
g8
(g10
S'\x13@\xfdg,\xa2\r\xc0'
tRp371
sI45
g8
(g10
S'\x83\xf6\xb7\xbb\x17v\r\xc0'
tRp372
ss(g4
g4
g16
g17
tp373
(dp374
I0
I0
sI20
I0
sI-45
I0
sI-20
I0
sI45
I0
ss(g2
g4
g2
g5
tp375
(dp376
I0
g8
(g10
S'\x84u`$\n"\x11\xc0'
tRp377
sI20
g8
(g10
S'\xf30\x967\x1aQ\x11\xc0'
tRp378
sI-45
g8
(g10
S'\x86\x9f\xee\xeebK\x11\xc0'
tRp379
sI-20
g8
(g10
S'<\xf5\x8e\xd3}\x9f\x10\xc0'
tRp380
sI45
g8
(g10
S'\x9ad\x95{\x03:\x11\xc0'
tRp381
ss(g4
g35
g2
g32
tp382
(dp383
I0
I0
sI20
I0
sI-45
I0
sI-20
I0
sI45
I0
ss(g4
g35
g2
g5
tp384
(dp385
I0
I0
sI20
I0
sI-45
I0
sI-20
I0
sI45
I0
ss(g2
g2
g3
g71
tp386
(dp387
I0
g8
(g10
S'w\xe8\x16>s\x06\x13\xc0'
tRp388
sI20
g8
(g10
S'\xca\x10*Az\xb2\x11\xc0'
tRp389
sI-45
g8
(g10
S'f\x11K\xca\x94\xc4\x12\xc0'
tRp390
sI-20
g8
(g10
S'RU\x91\xef\xd2\x14\x12\xc0'
tRp391
sI45
g8
(g10
S'*\x126)\xfd\xb8\x12\xc0'
tRp392
ss(g4
g3
g2
g71
tp393
(dp394
I0
I0
sI20
I0
sI-45
I0
sI-20
I0
sI45
I0
ss(g16
g2
g4
g46
tp395
(dp396
I0
I0
sI20
I0
sI-45
I0
sI-20
I0
sI45
g8
(g10
S'\xd6\xb4\xf1\xf2_W\xd2\xbf'
tRp397
ss(g16
g35
g3
g17
tp398
(dp399
I0
I0
sI20
I0
sI-45
I0
sI-20
I0
sI45
I0
ss(g2
g35
g35
g90
tp400
(dp401
I0
I0
sI20
I0
sI-45
I0
sI-20
I0
sI45
I0
ss(g2
g35
g3
g90
tp402
(dp403
I0
I0
sI20
I0
sI-45
I0
sI-20
I0
sI45
I0
ss(g2
g35
g4
g102
tp404
(dp405
I0
I0
sI20
I0
sI-45
I0
sI-20
I0
sI45
I0
ss(g16
g35
g2
g38
tp406
(dp407
I0
I0
sI20
I0
sI-45
I0
sI-20
I0
sI45
I0
ss(g16
g3
g35
g71
tp408
(dp409
I0
g8
(g10
S'\xb1\xe2TS\x88\x90\xfa\xbf'
tRp410
sI20
g8
(g10
S'`*%\x9c\xd1!\xf7\xbf'
tRp411
sI-45
g8
(g10
S'\x92\x80(A\xe5\x93\xfa\xbf'
tRp412
sI-20
g8
(g10
S'V\xef\x00\xba\xa9\n\xf6\xbf'
tRp413
sI45
g8
(g10
S'\x91>t>\xb5\xdc\xf5\xbf'
tRp414
ss(g16
g16
g2
g38
tp415
(dp416
I0
I0
sI20
I0
sI-45
I0
sI-20
I0
sI45
I0
ss(g4
g3
g16
g32
tp417
(dp418
I0
I0
sI20
I0
sI-45
I0
sI-20
I0
sI45
I0
ss(g2
g3
g3
g102
tp419
(dp420
I0
I0
sI20
I0
sI-45
I0
sI-20
I0
sI45
I0
ss(g16
g35
g35
g102
tp421
(dp422
I0
I0
sI20
I0
sI-45
I0
sI-20
I0
sI45
I0
ss(g16
g4
g16
g32
tp423
(dp424
I0
I0
sI20
I0
sI-45
I0
sI-20
I0
sI45
g8
(g10
S'\xf3\xf0\x17+k\xc3\xd2\xbf'
tRp425
ss(g16
g2
g3
g71
tp426
(dp427
I0
g8
(g10
S'\x92\r\xf6)w\xbb\x08\xc0'
tRp428
sI20
g8
(g10
S'\xa2\xbe\xbcu]\xa2\t\xc0'
tRp429
sI-45
g8
(g10
S'n\xbb\xca\xa4\xd1I\t\xc0'
tRp430
sI-20
g8
(g10
S'\xa3\xa3\x8e<\x8e\xc0\x07\xc0'
tRp431
sI45
g8
(g10
S'\xe21z$@\xfb\x08\xc0'
tRp432
ss(g2
g16
g16
g102
tp433
(dp434
I0
I0
sI20
I0
sI-45
I0
sI-20
I0
sI45
I0
ss(g16
g3
g2
g38
tp435
(dp436
I0
g8
(g10
S'_\xff\xa9\xc8\x17\xab\x04\xc0'
tRp437
sI20
g8
(g10
S'8S\x97h\xa7\x1a\x04\xc0'
tRp438
sI-45
g8
(g10
S'\xe0\t\x93\x86\x81:\x08\xc0'
tRp439
sI-20
g8
(g10
S'\xcaU\xf8\xb7\xb3\x00\x08\xc0'
tRp440
sI45
g8
(g10
S'\x90V\x1e>\x17\x17\x05\xc0'
tRp441
ss(g4
g16
g16
g5
tp442
(dp443
I0
I0
sI20
I0
sI-45
I0
sI-20
I0
sI45
I0
ss(g4
g35
g2
g17
tp444
(dp445
I0
I0
sI20
I0
sI-45
I0
sI-20
I0
sI45
I0
ss(g2
g3
g2
g71
tp446
(dp447
I0
g8
(g10
S'\xf4\xa2\xe0\x9c]0\x0e\xc0'
tRp448
sI20
g8
(g10
S'0P\xe8\xb9a\xa8\x0e\xc0'
tRp449
sI-45
g8
(g10
S'1\x02\xc4\x12\xee\x12\x0f\xc0'
tRp450
sI-20
g8
(g10
S'T\x13\x83I@,\x0e\xc0'
tRp451
sI45
g8
(g10
S'\xb7$B[\xfc\x1e\x0b\xc0'
tRp452
ss(g4
g4
g16
g32
tp453
(dp454
I0
I0
sI20
I0
sI-45
I0
sI-20
I0
sI45
I0
ss(g16
g35
g16
g90
tp455
(dp456
I0
I0
sI20
I0
sI-45
I0
sI-20
I0
sI45
I0
ss(g16
g35
g3
g5
tp457
(dp458
I0
g8
(g10
S'\xd44c6\x05\xca\xed\xbf'
tRp459
sI20
g8
(g10
S'\xceo\x08\x15v\xfb\xef\xbf'
tRp460
sI-45
g8
(g10
S'\x18\x1a\x1c96\x84\xf3\xbf'
tRp461
sI-20
g8
(g10
S'\xf8\x9a\xbf\x1d\xe9[\xf5\xbf'
tRp462
sI45
g8
(g10
S'\xfd\x0e\x90\xa0\xd6\x16\xe9\xbf'
tRp463
ss(g2
g2
g3
g32
tp464
(dp465
I0
g8
(g10
S'K/\xb2\xcdc\xd3\xf1\xbf'
tRp466
sI20
g8
(g10
S'\x14R\xc3\x87\xbb\xed\xef\xbf'
tRp467
sI-45
g8
(g10
S'\x95|\x98R\x04\xb2\xe7\xbf'
tRp468
sI-20
g8
(g10
S'DJ\x08ib\x89\xef\xbf'
tRp469
sI45
g8
(g10
S'QZw\x18\xb3\x9d\xf3?'
tRp470
ss(g16
g16
g2
g24
tp471
(dp472
I0
I0
sI20
I0
sI-45
I0
sI-20
I0
sI45
I0
ss(g16
g2
g35
g102
tp473
(dp474
I0
I0
sI20
I0
sI-45
I0
sI-20
I0
sI45
I0
ss(g4
g2
g16
g17
tp475
(dp476
I0
I0
sI20
I0
sI-45
I0
sI-20
I0
sI45
I0
ss(g4
g4
g35
g102
tp477
(dp478
I0
I0
sI20
I0
sI-45
I0
sI-20
I0
sI45
I0
ss(g2
g4
g35
g32
tp479
(dp480
I0
I0
sI20
g8
(g10
S"\x98\x19\xa3n':\xcc?"
tRp481
sI-45
I0
sI-20
I0
sI45
g8
(g10
S'-\xb1\xf1\x7f\x84f\xd2\xbf'
tRp482
ss(g4
g35
g35
g71
tp483
(dp484
I0
I0
sI20
I0
sI-45
I0
sI-20
I0
sI45
I0
ss(g4
g16
g2
g38
tp485
(dp486
I0
I0
sI20
I0
sI-45
I0
sI-20
I0
sI45
I0
ss(g4
g4
g4
g90
tp487
(dp488
I0
I0
sI20
I0
sI-45
I0
sI-20
I0
sI45
I0
ss(g4
g3
g2
g32
tp489
(dp490
I0
I0
sI20
I0
sI-45
I0
sI-20
I0
sI45
I0
ss(g16
g35
g35
g46
tp491
(dp492
I0
I0
sI20
I0
sI-45
I0
sI-20
I0
sI45
I0
ss(g2
g2
g4
g24
tp493
(dp494
I0
I0
sI20
I0
sI-45
I0
sI-20
I0
sI45
g8
(g10
S'\xc0\xf9\x98\xf2}\xcb\xb0\xbf'
tRp495
ss(g16
g4
g16
g102
tp496
(dp497
I0
I0
sI20
I0
sI-45
I0
sI-20
I0
sI45
I0
ss(g4
g35
g35
g38
tp498
(dp499
I0
I0
sI20
I0
sI-45
I0
sI-20
I0
sI45
I0
ss(g2
g2
g4
g5
tp500
(dp501
I0
g8
(g10
S'\xf7#Uk\xb8w\x10\xc0'
tRp502
sI20
g8
(g10
S'\t)H\xd0(H\x11\xc0'
tRp503
sI-45
g8
(g10
S'\x9f\xf2B\xda\x000\x11\xc0'
tRp504
sI-20
g8
(g10
S'\xb0t\xa1\x14\xdd\x0c\x11\xc0'
tRp505
sI45
g8
(g10
S'\x1d\x8d\xd6\x1a\x0c:\x11\xc0'
tRp506
ss(g16
g16
g16
g24
tp507
(dp508
I0
I0
sI20
I0
sI-45
g8
(g10
S'\xf5ZO\xbaD\x92\xd2\xbf'
tRp509
sI-20
I0
sI45
I0
ss(g2
g35
g16
g102
tp510
(dp511
I0
I0
sI20
I0
sI-45
I0
sI-20
I0
sI45
I0
ss(g2
g35
g4
g32
tp512
(dp513
I0
I0
sI20
I0
sI-45
I0
sI-20
I0
sI45
g8
(g10
S'\r!\xe6\xfd\xb6\xf6\xcb\xbf'
tRp514
ss(g2
g4
g16
g90
tp515
(dp516
I0
I0
sI20
I0
sI-45
I0
sI-20
I0
sI45
I0
ss(g4
g16
g3
g17
tp517
(dp518
I0
I0
sI20
I0
sI-45
I0
sI-20
I0
sI45
I0
ss(g16
g3
g2
g24
tp519
(dp520
I0
g8
(g10
S'\xa8\xae\xb7]&H\xf6\xbf'
tRp521
sI20
g8
(g10
S"\xd6'\x8e\xc2\x96\x8a\xf3\xbf"
tRp522
sI-45
g8
(g10
S'\xf9\xb8\xfe%\x1b\\\xec\xbf'
tRp523
sI-20
g8
(g10
S'\xd4\xab\x01p\nh\xf3\xbf'
tRp524
sI45
g8
(g10
S'N\xf5\xf7P\xf2\x8c\xd0\xbf'
tRp525
ss(g16
g4
g4
g32
tp526
(dp527
I0
I0
sI20
I0
sI-45
I0
sI-20
I0
sI45
I0
ss(g16
g4
g35
g32
tp528
(dp529
I0
I0
sI20
I0
sI-45
I0
sI-20
I0
sI45
I0
ss(g2
g2
g4
g90
tp530
(dp531
I0
I0
sI20
I0
sI-45
I0
sI-20
I0
sI45
g8
(g10
S'\xb7A\x91\xb8*\xc5\xbc\xbf'
tRp532
ss(g16
g3
g3
g17
tp533
(dp534
I0
I0
sI20
I0
sI-45
I0
sI-20
I0
sI45
I0
ss(g4
g35
g4
g71
tp535
(dp536
I0
I0
sI20
I0
sI-45
I0
sI-20
I0
sI45
I0
ss(g16
g16
g4
g17
tp537
(dp538
I0
I0
sI20
I0
sI-45
I0
sI-20
I0
sI45
I0
ss(g4
g16
g16
g24
tp539
(dp540
I0
I0
sI20
I0
sI-45
I0
sI-20
I0
sI45
I0
ss(g2
g2
g35
g17
tp541
(dp542
I0
I0
sI20
I0
sI-45
I0
sI-20
I0
sI45
I0
ss(g16
g16
g35
g90
tp543
(dp544
I0
I0
sI20
I0
sI-45
I0
sI-20
I0
sI45
I0
ss(g4
g4
g4
g17
tp545
(dp546
I0
I0
sI20
I0
sI-45
I0
sI-20
I0
sI45
I0
ss(g16
g35
g4
g102
tp547
(dp548
I0
I0
sI20
I0
sI-45
I0
sI-20
I0
sI45
I0
ss(g16
g16
g4
g24
tp549
(dp550
I0
I0
sI20
I0
sI-45
I0
sI-20
I0
sI45
I0
ss(g4
g35
g3
g17
tp551
(dp552
I0
I0
sI20
I0
sI-45
I0
sI-20
I0
sI45
I0
ss(g4
g4
g4
g71
tp553
(dp554
I0
I0
sI20
I0
sI-45
I0
sI-20
I0
sI45
I0
ss(g16
g2
g16
g24
tp555
(dp556
I0
I0
sI20
I0
sI-45
I0
sI-20
I0
sI45
I0
ss(g4
g35
g3
g32
tp557
(dp558
I0
I0
sI20
I0
sI-45
I0
sI-20
I0
sI45
I0
ss(g2
g2
g16
g102
tp559
(dp560
I0
I0
sI20
I0
sI-45
I0
sI-20
I0
sI45
I0
ss(g4
g35
g35
g90
tp561
(dp562
I0
I0
sI20
I0
sI-45
I0
sI-20
I0
sI45
I0
ss(g2
g3
g4
g38
tp563
(dp564
I0
g8
(g10
S'\xa9\xb1\xb9s\xa6\x9c\x12\xc0'
tRp565
sI20
g8
(g10
S'\xf5\xa1\xbb\x07\xc8\x87\x11\xc0'
tRp566
sI-45
g8
(g10
S'\x86p\x83)0{\x11\xc0'
tRp567
sI-20
g8
(g10
S'\x93}\xe42s\xd6\x11\xc0'
tRp568
sI45
g8
(g10
S'(R\xe3\x05\x8c]\x0b\xc0'
tRp569
ss(g16
g35
g16
g17
tp570
(dp571
I0
I0
sI20
I0
sI-45
I0
sI-20
I0
sI45
I0
ss(g4
g35
g35
g24
tp572
(dp573
I0
I0
sI20
I0
sI-45
I0
sI-20
I0
sI45
I0
ss(g2
g35
g4
g46
tp574
(dp575
I0
F1
sI20
g8
(g10
S'\xc8\x1dC\x1e;\x08\xce\xbf'
tRp576
sI-45
I0
sI-20
I0
sI45
g8
(g10
S'\x18s\xdc\xe9\xce\xc8\xc9\xbf'
tRp577
ss(g16
g4
g35
g17
tp578
(dp579
I0
I0
sI20
I0
sI-45
I0
sI-20
I0
sI45
I0
ss(g2
g2
g2
g32
tp580
(dp581
I0
g8
(g10
S': \x9c\xc9\xc9\x1d\xe4\xbf'
tRp582
sI20
g8
(g10
S'r\x16\xab_\x97\xfc\xe2\xbf'
tRp583
sI-45
g8
(g10
S'\xfc\xafO\xd0\xf9\xa2\xea\xbf'
tRp584
sI-20
F0.68000000000000005
sI45
g8
(g10
S'N\xaeA\xdb\xa2+\xf7\xbf'
tRp585
ss(g16
g2
g2
g71
tp586
(dp587
I0
I0
sI20
I0
sI-45
I0
sI-20
I0
sI45
I0
ss(g4
g3
g16
g71
tp588
(dp589
I0
I0
sI20
I0
sI-45
I0
sI-20
I0
sI45
I0
ss(g2
g4
g35
g5
tp590
(dp591
I0
g8
(g10
S'\t\x9fyt\x94&\x10\xc0'
tRp592
sI20
g8
(g10
S's\t\xc9\x16\xe6\xce\x10\xc0'
tRp593
sI-45
g8
(g10
S'\x82\x8b2e\xe1\xab\x10\xc0'
tRp594
sI-20
g8
(g10
S'\x01\x87 \xeb#4\x11\xc0'
tRp595
sI45
g8
(g10
S'T\xef\xbbrr\xc3\x10\xc0'
tRp596
ss(g16
g4
g16
g90
tp597
(dp598
I0
I0
sI20
I0
sI-45
I0
sI-20
I0
sI45
I0
ss(g16
g2
g16
g46
tp599
(dp600
I0
I0
sI20
I0
sI-45
I0
sI-20
I0
sI45
I0
ss(g16
g35
g3
g102
tp601
(dp602
I0
I0
sI20
I0
sI-45
I0
sI-20
I0
sI45
I0
ss(g2
g35
g4
g17
tp603
(dp604
I0
F1
sI20
I0
sI-45
I0
sI-20
I0
sI45
I0
ss(g16
g2
g35
g90
tp605
(dp606
I0
I0
sI20
I0
sI-45
I0
sI-20
I0
sI45
I0
ss(g2
g35
g4
g24
tp607
(dp608
I0
g8
(g10
S'jR=f\xe6\x91\xcb\xbf'
tRp609
sI20
g8
(g10
S'">\x1epX\xa6\xcb\xbf'
tRp610
sI-45
I0
sI-20
I0
sI45
g8
(g10
S'\x80\n\xbb\xf0\x0c\xc8}\xbf'
tRp611
ss(g16
g2
g4
g5
tp612
(dp613
I0
I0
sI20
g8
(g10
S'Q\xb2\xf3`\x8b=\xe6\xbf'
tRp614
sI-45
I0
sI-20
I0
sI45
I0
ss(g16
g4
g3
g38
tp615
(dp616
I0
g8
(g10
S'\x96\xcaD<\xed\xa7\x07\xc0'
tRp617
sI20
g8
(g10
S'\xcb\x1b\x8f\x00RG\x07\xc0'
tRp618
sI-45
g8
(g10
S'u\r\xb6qrb\x07\xc0'
tRp619
sI-20
g8
(g10
S'\xc9}]*\x0c"\x0b\xc0'
tRp620
sI45
g8
(g10
S'<W\xb9%c\xa7\x08\xc0'
tRp621
ss(g2
g4
g2
g32
tp622
(dp623
I0
I0
sI20
I0
sI-45
g8
(g10
S'\xc2\xa7\x1b]\xa6\xc6\xd2\xbf'
tRp624
sI-20
I0
sI45
g8
(g10
S'\xce\xd0;\xa1\x8cR\xe0\xbf'
tRp625
ss(g16
g35
g4
g32
tp626
(dp627
I0
I0
sI20
I0
sI-45
I0
sI-20
I0
sI45
I0
ss(g16
g3
g2
g102
tp628
(dp629
I0
I0
sI20
I0
sI-45
I0
sI-20
I0
sI45
I0
ss(g4
g16
g2
g32
tp630
(dp631
I0
I0
sI20
I0
sI-45
I0
sI-20
I0
sI45
I0
ss(g16
g4
g16
g46
tp632
(dp633
I0
I0
sI20
I0
sI-45
I0
sI-20
I0
sI45
I0
ss(g2
g4
g35
g17
tp634
(dp635
I0
I0
sI20
I0
sI-45
I0
sI-20
I0
sI45
I0
ss(g2
g4
g4
g90
tp636
(dp637
I0
I0
sI20
I0
sI-45
I0
sI-20
I0
sI45
I0
ss(g2
g4
g3
g46
tp638
(dp639
I0
I0
sI20
I0
sI-45
I0
sI-20
I0
sI45
I0
ss(g2
g4
g35
g24
tp640
(dp641
I0
I0
sI20
I0
sI-45
I0
sI-20
I0
sI45
g8
(g10
S'\xad\n\xb1qq\xe9\xdf\xbf'
tRp642
ss(g4
g3
g4
g17
tp643
(dp644
I0
I0
sI20
I0
sI-45
I0
sI-20
I0
sI45
I0
ss(g16
g3
g35
g38
tp645
(dp646
I0
g8
(g10
S'J\xe9\xe9e\xd8\xdd\xef\xbf'
tRp647
sI20
g8
(g10
S'x\x87c\xee\xb1\x92\xf5\xbf'
tRp648
sI-45
g8
(g10
S'B6_L\xa4\xff\xf0\xbf'
tRp649
sI-20
g8
(g10
S'\xf4\xf31 \x9a\xb2\xf1\xbf'
tRp650
sI45
g8
(g10
S'XQ\xc7I\x8du\xf1\xbf'
tRp651
ss(g2
g16
g3
g90
tp652
(dp653
I0
I0
sI20
I0
sI-45
I0
sI-20
I0
sI45
I0
ss(g16
g2
g2
g102
tp654
(dp655
I0
I0
sI20
I0
sI-45
I0
sI-20
I0
sI45
I0
ss(g16
g4
g16
g17
tp656
(dp657
I0
I0
sI20
I0
sI-45
I0
sI-20
I0
sI45
I0
ss(g2
g2
g3
g46
tp658
(dp659
I0
I0
sI20
I0
sI-45
I0
sI-20
I0
sI45
I0
ss(g16
g4
g16
g24
tp660
(dp661
I0
I0
sI20
g8
(g10
S'\xc4\x7f\xf5|Pu\xd0?'
tRp662
sI-45
I0
sI-20
I0
sI45
I0
ss(g4
g4
g16
g71
tp663
(dp664
I0
I0
sI20
I0
sI-45
I0
sI-20
I0
sI45
I0
ss(g4
g16
g4
g90
tp665
(dp666
I0
I0
sI20
I0
sI-45
I0
sI-20
I0
sI45
I0
ss(g2
g16
g4
g71
tp667
(dp668
I0
g8
(g10
S'\xc4K\x85\xdc\x805\n\xc0'
tRp669
sI20
g8
(g10
S'1\xbcB\x0e\x11\xeb\t\xc0'
tRp670
sI-45
g8
(g10
S'\xb2\x96\xb7\xd0\x98\xfb\t\xc0'
tRp671
sI-20
g8
(g10
S'\x91M\xcb\x00\x9c\xad\t\xc0'
tRp672
sI45
g8
(g10
S'\\\xaa\xdcn1\xc6\x0b\xc0'
tRp673
ss(g4
g2
g3
g5
tp674
(dp675
I0
I0
sI20
I0
sI-45
I0
sI-20
I0
sI45
I0
ss(g4
g16
g35
g5
tp676
(dp677
I0
I0
sI20
I0
sI-45
I0
sI-20
I0
sI45
I0
ss(g16
g3
g35
g17
tp678
(dp679
I0
I0
sI20
I0
sI-45
I0
sI-20
I0
sI45
I0
ss(g2
g16
g3
g5
tp680
(dp681
I0
g8
(g10
S'q\xd3&e\x04\xbb\x12\xc0'
tRp682
sI20
g8
(g10
S"Ubu\xca'R\x12\xc0"
tRp683
sI-45
g8
(g10
S'\xfb\xd4\x0fZ\xa7K\x12\xc0'
tRp684
sI-20
g8
(g10
S'\x89\xf8\xed\x8d\xba\xb2\x12\xc0'
tRp685
sI45
g8
(g10
S'#\xec\xc5\xd0\xc3\xa7\x12\xc0'
tRp686
ss(g4
g16
g4
g17
tp687
(dp688
I0
I0
sI20
I0
sI-45
I0
sI-20
I0
sI45
I0
ss(g4
g2
g35
g102
tp689
(dp690
I0
I0
sI20
I0
sI-45
I0
sI-20
I0
sI45
I0
ss(g2
g3
g35
g102
tp691
(dp692
I0
I0
sI20
I0
sI-45
I0
sI-20
I0
sI45
I0
ss(g4
g3
g16
g5
tp693
(dp694
I0
I0
sI20
I0
sI-45
I0
sI-20
I0
sI45
I0
ss(g16
g2
g3
g17
tp695
(dp696
I0
I0
sI20
I0
sI-45
I0
sI-20
I0
sI45
I0
ss(g16
g16
g4
g90
tp697
(dp698
I0
I0
sI20
I0
sI-45
I0
sI-20
I0
sI45
I0
ss(g4
g35
g16
g71
tp699
(dp700
I0
I0
sI20
I0
sI-45
I0
sI-20
I0
sI45
I0
ss(g4
g35
g2
g71
tp701
(dp702
I0
I0
sI20
I0
sI-45
I0
sI-20
I0
sI45
I0
ss(g4
g3
g3
g38
tp703
(dp704
I0
I0
sI20
I0
sI-45
I0
sI-20
I0
sI45
I0
ss(g16
g35
g16
g46
tp705
(dp706
I0
I0
sI20
I0
sI-45
I0
sI-20
I0
sI45
I0
ss(g4
g2
g4
g32
tp707
(dp708
I0
I0
sI20
I0
sI-45
I0
sI-20
I0
sI45
I0
ss(g2
g16
g2
g46
tp709
(dp710
I0
I0
sI20
I0
sI-45
I0
sI-20
I0
sI45
F1
ss(g16
g2
g4
g102
tp711
(dp712
I0
I0
sI20
I0
sI-45
I0
sI-20
I0
sI45
I0
ss(g16
g4
g35
g5
tp713
(dp714
I0
I0
sI20
I0
sI-45
I0
sI-20
I0
sI45
I0
ss(g16
g16
g16
g38
tp715
(dp716
I0
g8
(g10
S'$~\xd47bk\xf7\xbf'
tRp717
sI20
g8
(g10
S'\xe15M\xf6|\r\xf9\xbf'
tRp718
sI-45
g8
(g10
S'o\x18\x02\xdf0\xcf\xf7\xbf'
tRp719
sI-20
g8
(g10
S'\xc6M\xd8\x89\xd4\xc0\xf9\xbf'
tRp720
sI45
g8
(g10
S':\x87\xbc\x05\x06\xac\xfc\xbf'
tRp721
ss(g4
g2
g4
g17
tp722
(dp723
I0
I0
sI20
I0
sI-45
I0
sI-20
I0
sI45
I0
ss(g2
g3
g4
g71
tp724
(dp725
I0
g8
(g10
S'$\x82zmi\xff\x08\xc0'
tRp726
sI20
g8
(g10
S'\xe7)\xfd\xa5\x0c\xc1\n\xc0'
tRp727
sI-45
g8
(g10
S'@\xb7\xfa\x18Y\xd2\t\xc0'
tRp728
sI-20
g8
(g10
S'8~\x88\xe6f\x81\x07\xc0'
tRp729
sI45
g8
(g10
S'\xddii\xed!%\n\xc0'
tRp730
ss(g16
g16
g4
g46
tp731
(dp732
I0
I0
sI20
F1
sI-45
I0
sI-20
I0
sI45
I0
ss(g2
g3
g16
g32
tp733
(dp734
I0
I0
sI20
I0
sI-45
I0
sI-20
I0
sI45
I0
ss(g16
g16
g35
g71
tp735
(dp736
I0
I0
sI20
I0
sI-45
I0
sI-20
I0
sI45
I0
ss(g4
g2
g2
g17
tp737
(dp738
I0
I0
sI20
I0
sI-45
I0
sI-20
I0
sI45
I0
ss(g2
g35
g2
g32
tp739
(dp740
I0
I0
sI20
I0
sI-45
g8
(g10
S'(\xd9c\xf0\xea\xce\xe7\xbf'
tRp741
sI-20
I0
sI45
g8
(g10
S'w\xcd\xbe!\x93\x00\xfb?'
tRp742
ss(g16
g35
g4
g38
tp743
(dp744
I0
I0
sI20
I0
sI-45
I0
sI-20
I0
sI45
I0
ss(g4
g16
g35
g102
tp745
(dp746
I0
I0
sI20
I0
sI-45
I0
sI-20
I0
sI45
I0
ss(g4
g3
g35
g32
tp747
(dp748
I0
I0
sI20
I0
sI-45
I0
sI-20
I0
sI45
I0
ss(g16
g4
g2
g24
tp749
(dp750
I0
I0
sI20
I0
sI-45
I0
sI-20
I0
sI45
I0
ss(g16
g16
g3
g46
tp751
(dp752
I0
I0
sI20
I0
sI-45
I0
sI-20
I0
sI45
I0
ss(g16
g2
g3
g32
tp753
(dp754
I0
g8
(g10
S'\xb0~t\xcf\xe6\xa9\xa7?'
tRp755
sI20
g8
(g10
S'\x0f\x8a\xfe<.f\xe9\xbf'
tRp756
sI-45
g8
(g10
S'4[\xf8|;\xc4\xde\xbf'
tRp757
sI-20
g8
(g10
S'\x00\xc4\x17\x86\n.K?'
tRp758
sI45
g8
(g10
S'\x00C\xcc\x91\xc01\x9c?'
tRp759
ss(g4
g35
g35
g46
tp760
(dp761
I0
I0
sI20
I0
sI-45
I0
sI-20
I0
sI45
I0
ss(g2
g3
g16
g102
tp762
(dp763
I0
I0
sI20
I0
sI-45
I0
sI-20
I0
sI45
I0
ss(g2
g16
g2
g24
tp764
(dp765
I0
g8
(g10
S'\xcd\x10\xb8\xc0\xb3\x86\xeb\xbf'
tRp766
sI20
g8
(g10
S'T\x16\xed\xb6pT\xe5\xbf'
tRp767
sI-45
g8
(g10
S'}\xb9\xb6\x97\x87\xf2\xd5\xbf'
tRp768
sI-20
I0
sI45
g8
(g10
S'"\xa8o5H.\xc0\xbf'
tRp769
ss(g2
g35
g2
g102
tp770
(dp771
I0
I0
sI20
I0
sI-45
I0
sI-20
I0
sI45
F1
ss(g16
g16
g3
g5
tp772
(dp773
I0
g8
(g10
S'kQ\xcb/\xaa\xd9\x11\xc0'
tRp774
sI20
g8
(g10
S'_\x17\xe0\xb4\xff(\x12\xc0'
tRp775
sI-45
g8
(g10
S'\x88\xef\xe1\xe9s\xd5\x11\xc0'
tRp776
sI-20
g8
(g10
S'av-\xc88\x18\x12\xc0'
tRp777
sI45
g8
(g10
S'c\x11XP\xdc{\x0f\xc0'
tRp778
ss(g4
g16
g35
g24
tp779
(dp780
I0
I0
sI20
I0
sI-45
I0
sI-20
I0
sI45
I0
ss(g2
g4
g16
g5
tp781
(dp782
I0
g8
(g10
S'\xfd\xe1\x14\xc9d\xac\x11\xc0'
tRp783
sI20
g8
(g10
S"\x9c}\xf2E\x82'\x12\xc0"
tRp784
sI-45
g8
(g10
S'\x9c/\x05,c\xa3\x11\xc0'
tRp785
sI-20
g8
(g10
S'$F\x0e\x03\x80\xb6\x11\xc0'
tRp786
sI45
g8
(g10
S'p\xcf/py\xeb\x11\xc0'
tRp787
ss(g16
g3
g35
g32
tp788
(dp789
I0
I0
sI20
I0
sI-45
I0
sI-20
I0
sI45
I0
ss(g2
g3
g2
g46
tp790
(dp791
I0
g8
(g10
S'@\x8e6\xcd%\xdb\xb5\xbf'
tRp792
sI20
g8
(g10
S'\x8b\x1b`<)\x94\xe0\xbf'
tRp793
sI-45
g8
(g10
S'0\xbdJj[\xc3\xc9\xbf'
tRp794
sI-20
g8
(g10
S'`L u-\x83\xb0?'
tRp795
sI45
g8
(g10
S'p\x7f\x84\xef&\x0e\xf8?'
tRp796
ss(g4
g2
g3
g71
tp797
(dp798
I0
I0
sI20
I0
sI-45
I0
sI-20
I0
sI45
I0
ss(g4
g35
g4
g46
tp799
(dp800
I0
I0
sI20
I0
sI-45
I0
sI-20
I0
sI45
I0
ss(g4
g35
g4
g17
tp801
(dp802
I0
I0
sI20
I0
sI-45
I0
sI-20
I0
sI45
I0
ss(g16
g4
g2
g46
tp803
(dp804
I0
I0
sI20
I0
sI-45
I0
sI-20
I0
sI45
I0
ss(g16
g16
g3
g90
tp805
(dp806
I0
I0
sI20
I0
sI-45
I0
sI-20
I0
sI45
I0
ss(g2
g16
g2
g38
tp807
(dp808
I0
g8
(g10
S'\xb2\xbf\x8b\xa3A\xf7\x10\xc0'
tRp809
sI20
g8
(g10
S'u"N?\xd4\xd7\x10\xc0'
tRp810
sI-45
g8
(g10
S'\xf8P\x88\xb9[\xe0\x10\xc0'
tRp811
sI-20
g8
(g10
S'E\x85\xee\xf7e\xcb\x10\xc0'
tRp812
sI45
g8
(g10
S'\x90\xc2\x9c\xa8\xbam\x10\xc0'
tRp813
ss(g2
g3
g35
g90
tp814
(dp815
I0
I0
sI20
I0
sI-45
I0
sI-20
I0
sI45
I0
ss(g2
g16
g2
g5
tp816
(dp817
I0
g8
(g10
S'j\xa7WF\x10X\x11\xc0'
tRp818
sI20
g8
(g10
S'\xa64,\xe2\x1fc\x11\xc0'
tRp819
sI-45
g8
(g10
S'|\xd5\x9aD\xaeu\x10\xc0'
tRp820
sI-20
g8
(g10
S'\xdc&P\xa7\xffo\x11\xc0'
tRp821
sI45
g8
(g10
S'\r\xc5\x926dP\x11\xc0'
tRp822
ss(g2
g35
g35
g71
tp823
(dp824
I0
g8
(g10
S'a\x07\xba\xc4dN\x0c\xc0'
tRp825
sI20
g8
(g10
S'\xa2\xe7\xa3\xbe\xda\xdd\x10\xc0'
tRp826
sI-45
g8
(g10
S'DB_g\xe7r\x11\xc0'
tRp827
sI-20
g8
(g10
S'(\x92e\xea\x88\xb4\x10\xc0'
tRp828
sI45
g8
(g10
S'^y\x88\xa3H>\x11\xc0'
tRp829
ss(g4
g2
g2
g38
tp830
(dp831
I0
I0
sI20
I0
sI-45
I0
sI-20
I0
sI45
I0
ss(g16
g35
g2
g17
tp832
(dp833
I0
I0
sI20
I0
sI-45
I0
sI-20
I0
sI45
I0
ss(g4
g2
g35
g5
tp834
(dp835
I0
I0
sI20
I0
sI-45
I0
sI-20
I0
sI45
I0
ss(g16
g16
g16
g102
tp836
(dp837
I0
I0
sI20
I0
sI-45
I0
sI-20
I0
sI45
I0
ss(g4
g16
g2
g71
tp838
(dp839
I0
I0
sI20
I0
sI-45
I0
sI-20
I0
sI45
I0
ss(g16
g4
g2
g38
tp840
(dp841
I0
I0
sI20
g8
(g10
S'\xbb\x19\xfb\x15\xa8e\xc7\xbf'
tRp842
sI-45
I0
sI-20
I0
sI45
I0
ss(g2
g16
g16
g71
tp843
(dp844
I0
g8
(g10
S'\xc3\x9c\xbc\xdb\xf2\xd8\x0c\xc0'
tRp845
sI20
g8
(g10
S'&L\x9e\xc7\x156\x0c\xc0'
tRp846
sI-45
g8
(g10
S'O\x92{$W\xf5\x0c\xc0'
tRp847
sI-20
g8
(g10
S'&\x9a\xf3\x93=-\x0b\xc0'
tRp848
sI45
g8
(g10
S'\x92\x0e\x8dC\xd5\xc4\x0c\xc0'
tRp849
ss(g2
g4
g4
g5
tp850
(dp851
I0
g8
(g10
S'\x07O\xdf!\xcc\xef\x10\xc0'
tRp852
sI20
g8
(g10
S'\xba[=\x8e\xd7\xe7\x10\xc0'
tRp853
sI-45
g8
(g10
S'`\xa23qA\x02\x11\xc0'
tRp854
sI-20
g8
(g10
S'\xc3\xb1b\x1c}\xf2\x10\xc0'
tRp855
sI45
g8
(g10
S'4p\x13\xcb\xb9!\x11\xc0'
tRp856
ss(g2
g16
g35
g24
tp857
(dp858
I0
I0
sI20
I0
sI-45
I0
sI-20
g8
(g10
S'we\xa6\x0f\x08\r\xd0\xbf'
tRp859
sI45
g8
(g10
S'\x9a1\xa1C\x89\xc8\xce\xbf'
tRp860
ss(g2
g16
g16
g38
tp861
(dp862
I0
g8
(g10
S'\xe5\x87\xf0H\nT\x0e\xc0'
tRp863
sI20
g8
(g10
S'\xebf\xbd_u+\r\xc0'
tRp864
sI-45
g8
(g10
S'\x0b\xde\x84\xff\x1a\x7f\x0b\xc0'
tRp865
sI-20
g8
(g10
S'\x8f_\xff\x7f\x88\x97\n\xc0'
tRp866
sI45
g8
(g10
S'8\x84\xf1\xbe\xb2\xa3\x0b\xc0'
tRp867
ss(g4
g4
g35
g71
tp868
(dp869
I0
I0
sI20
I0
sI-45
I0
sI-20
I0
sI45
I0
ss(g4
g2
g16
g38
tp870
(dp871
I0
I0
sI20
I0
sI-45
I0
sI-20
I0
sI45
I0
ss(g4
g3
g3
g5
tp872
(dp873
I0
I0
sI20
I0
sI-45
I0
sI-20
I0
sI45
I0
ss(g4
g2
g35
g17
tp874
(dp875
I0
I0
sI20
I0
sI-45
I0
sI-20
I0
sI45
I0
ss(g4
g35
g35
g102
tp876
(dp877
I0
I0
sI20
I0
sI-45
I0
sI-20
I0
sI45
I0
ss(g2
g4
g2
g90
tp878
(dp879
I0
I0
sI20
I0
sI-45
I0
sI-20
I0
sI45
I0
ss(g4
g16
g3
g71
tp880
(dp881
I0
I0
sI20
I0
sI-45
I0
sI-20
I0
sI45
I0
ss(g2
g2
g2
g24
tp882
(dp883
I0
I0
sI20
g8
(g10
S'\xdce\xf7\xc9E\xf2\xde\xbf'
tRp884
sI-45
I0
sI-20
I0
sI45
g8
(g10
S'\xbaZ\xf9.)\x92\xcf\xbf'
tRp885
ss(g2
g4
g35
g71
tp886
(dp887
I0
g8
(g10
S'\xa4X\x0fe\xdb8\x05\xc0'
tRp888
sI20
g8
(g10
S"\x9d2,'\xbf3\x03\xc0"
tRp889
sI-45
g8
(g10
S'H!\x13\x1f\xac\x91\x05\xc0'
tRp890
sI-20
g8
(g10
S'\xc9_f\xdd\xcc\xa4\x03\xc0'
tRp891
sI45
g8
(g10
S'@\xc8\xcdAD}\x05\xc0'
tRp892
ss(g2
g2
g2
g17
tp893
(dp894
I0
I0
sI20
I0
sI-45
I0
sI-20
I0
sI45
I0
ss(g4
g16
g35
g38
tp895
(dp896
I0
I0
sI20
I0
sI-45
I0
sI-20
I0
sI45
I0
ss(g16
g3
g3
g71
tp897
(dp898
I0
g8
(g10
S'\x0cP\xe8\xfap\xb9\x06\xc0'
tRp899
sI20
g8
(g10
S'\x9b\xa4#\xb3\x89G\x07\xc0'
tRp900
sI-45
g8
(g10
S'r\xd7\xbe9\xa9{\t\xc0'
tRp901
sI-20
g8
(g10
S'}\xd9\xdeh\x86\xa2\x06\xc0'
tRp902
sI45
g8
(g10
S'\xe7\xc3\xbb\xca\xe5\x1b\x07\xc0'
tRp903
ss(g16
g2
g4
g71
tp904
(dp905
I0
I0
sI20
I0
sI-45
I0
sI-20
I0
sI45
I0
ss(g4
g35
g4
g24
tp906
(dp907
I0
I0
sI20
I0
sI-45
I0
sI-20
I0
sI45
I0
ss(g4
g35
g4
g32
tp908
(dp909
I0
I0
sI20
I0
sI-45
I0
sI-20
I0
sI45
I0
ss(g4
g3
g16
g38
tp910
(dp911
I0
I0
sI20
I0
sI-45
I0
sI-20
I0
sI45
I0
ss(g2
g35
g35
g24
tp912
(dp913
I0
g8
(g10
S'6\x997\xe0\x04\xd2\xf2\xbf'
tRp914
sI20
g8
(g10
S'\xd7\x1c\xd4%"M\xed\xbf'
tRp915
sI-45
g8
(g10
S'B>\x00\xb8&\x05\xf2\xbf'
tRp916
sI-20
F-1.0912000000000002
sI45
g8
(g10
S',\xfc\x14\x92Z\x92\xf9\xbf'
tRp917
ss(g16
g16
g35
g32
tp918
(dp919
I0
I0
sI20
I0
sI-45
I0
sI-20
I0
sI45
I0
ss(g4
g4
g35
g32
tp920
(dp921
I0
I0
sI20
I0
sI-45
I0
sI-20
I0
sI45
I0
ss(g2
g2
g3
g38
tp922
(dp923
I0
g8
(g10
S'\x81S:\xcb\xad\xd9\x0e\xc0'
tRp924
sI20
g8
(g10
S"n'\x802\x1aB\x0f\xc0"
tRp925
sI-45
g8
(g10
S'\xd33\xc9\xf3\xbe\xac\x0e\xc0'
tRp926
sI-20
g8
(g10
S'\x18\r\x8eV~\x99\x06\xc0'
tRp927
sI45
g8
(g10
S'Rv\x1d\x0cA\x90\x0e\xc0'
tRp928
ss(g2
g2
g2
g5
tp929
(dp930
I0
g8
(g10
S'\xc3;\xc5\xfe\xb3\x98\x0c\xc0'
tRp931
sI20
g8
(g10
S'b\x9c\xcb\xf1@\xe2\x10\xc0'
tRp932
sI-45
g8
(g10
S'\xec\x0c`\xfb\x90$\x11\xc0'
tRp933
sI-20
g8
(g10
S'\xc4;\x89\xa2/U\r\xc0'
tRp934
sI45
g8
(g10
S'\x1d\x9e)\x91J2\x10\xc0'
tRp935
ss(g2
g35
g16
g24
tp936
(dp937
I0
g8
(g10
S'\xfczrA]\x9a\xe5\xbf'
tRp938
sI20
g8
(g10
S'\x9c\xfe\x11s\xbe7\xe1\xbf'
tRp939
sI-45
g8
(g10
S'\x04\xa5\xb8z\x9c\xe3\xe0\xbf'
tRp940
sI-20
g8
(g10
S'`[ q~\xa0\xea\xbf'
tRp941
sI45
g8
(g10
S'\xf2\xde#\xf1\x10n\xe2\xbf'
tRp942
ss(g16
g2
g2
g24
tp943
(dp944
I0
I0
sI20
I0
sI-45
I0
sI-20
I0
sI45
I0
ss(g4
g35
g2
g38
tp945
(dp946
I0
I0
sI20
I0
sI-45
I0
sI-20
I0
sI45
I0
ss(g2
g2
g4
g102
tp947
(dp948
I0
I0
sI20
I0
sI-45
I0
sI-20
I0
sI45
I0
ss(g16
g4
g4
g17
tp949
(dp950
I0
I0
sI20
I0
sI-45
I0
sI-20
I0
sI45
I0
ss(g2
g3
g3
g46
tp951
(dp952
I0
I0
sI20
I0
sI-45
I0
sI-20
I0
sI45
I0
ss(g4
g3
g3
g24
tp953
(dp954
I0
I0
sI20
I0
sI-45
I0
sI-20
I0
sI45
I0
ss(g2
g35
g2
g17
tp955
(dp956
I0
I0
sI20
I0
sI-45
I0
sI-20
I0
sI45
I0
ss(g4
g2
g2
g32
tp957
(dp958
I0
I0
sI20
I0
sI-45
I0
sI-20
I0
sI45
I0
ss(g2
g2
g2
g90
tp959
(dp960
I0
F-0.40000000000000002
sI20
g8
(g10
S'j\xafjc\xc30\xc1\xbf'
tRp961
sI-45
g8
(g10
S'\x0f\xea\xa36\xd3j\xd2\xbf'
tRp962
sI-20
g8
(g10
S'\xd4\xef~\x04\\B\xfe?'
tRp963
sI45
F-0.40000000000000002
ss(g4
g4
g35
g24
tp964
(dp965
I0
I0
sI20
I0
sI-45
I0
sI-20
I0
sI45
I0
ss(g16
g2
g35
g24
tp966
(dp967
I0
I0
sI20
I0
sI-45
I0
sI-20
I0
sI45
I0
ss(g4
g4
g35
g5
tp968
(dp969
I0
I0
sI20
I0
sI-45
I0
sI-20
I0
sI45
I0
ss(g4
g3
g16
g102
tp970
(dp971
I0
I0
sI20
I0
sI-45
I0
sI-20
I0
sI45
I0
ss(g4
g3
g3
g71
tp972
(dp973
I0
I0
sI20
I0
sI-45
I0
sI-20
I0
sI45
I0
ss(g16
g35
g3
g71
tp974
(dp975
I0
g8
(g10
S'Vz~\x93B\xc6\xf1\xbf'
tRp976
sI20
g8
(g10
S'B\xafs\xd4\xbe|\xf2\xbf'
tRp977
sI-45
g8
(g10
S'\xd4\xcb\x0b\x80\x04\xb1\xf6\xbf'
tRp978
sI-20
g8
(g10
S'%\x89\x91\x8b.\xae\xf5\xbf'
tRp979
sI45
g8
(g10
S'9l\xfd\xb1\xecL\xf5\xbf'
tRp980
ss(g4
g4
g3
g46
tp981
(dp982
I0
I0
sI20
I0
sI-45
I0
sI-20
I0
sI45
I0
ss(g16
g35
g4
g90
tp983
(dp984
I0
I0
sI20
I0
sI-45
I0
sI-20
I0
sI45
I0
ss(g2
g35
g16
g5
tp985
(dp986
I0
g8
(g10
S'u\x85\xd1\xe2O\xf9\x10\xc0'
tRp987
sI20
g8
(g10
S'\x17\xb1\x8b\xf2\xe2\x9c\x10\xc0'
tRp988
sI-45
g8
(g10
S'V3n\xba\t\xfd\x10\xc0'
tRp989
sI-20
g8
(g10
S"\xa7'\xca1n\xaf\x10\xc0"
tRp990
sI45
g8
(g10
S'\x1a\xfc-\x05\xa6\xda\x10\xc0'
tRp991
ss(g4
g4
g35
g46
tp992
(dp993
I0
I0
sI20
I0
sI-45
I0
sI-20
I0
sI45
I0
ss(g4
g35
g3
g90
tp994
(dp995
I0
I0
sI20
I0
sI-45
I0
sI-20
I0
sI45
I0
ss(g2
g4
g3
g102
tp996
(dp997
I0
I0
sI20
I0
sI-45
I0
sI-20
I0
sI45
I0
ss(g16
g16
g16
g32
tp998
(dp999
I0
I0
sI20
I0
sI-45
I0
sI-20
I0
sI45
I0
ss(g4
g4
g2
g24
tp1000
(dp1001
I0
I0
sI20
I0
sI-45
I0
sI-20
I0
sI45
I0
ss(g4
g2
g16
g32
tp1002
(dp1003
I0
I0
sI20
I0
sI-45
I0
sI-20
I0
sI45
I0
ss(g2
g35
g16
g38
tp1004
(dp1005
I0
g8
(g10
S'\x17\x1aj4R\xc7\xf9\xbf'
tRp1006
sI20
g8
(g10
S'\xc2\xb9\x9aq\xfdA\xfb\xbf'
tRp1007
sI-45
g8
(g10
S'+k\x92\xdb,\xbf\x01\xc0'
tRp1008
sI-20
g8
(g10
S'B<W5M\x84\x00\xc0'
tRp1009
sI45
g8
(g10
S'Q\xbf\xbf\xdb\xcda\xff\xbf'
tRp1010
ss(g4
g35
g3
g38
tp1011
(dp1012
I0
I0
sI20
I0
sI-45
I0
sI-20
I0
sI45
I0
ss(g4
g3
g2
g17
tp1013
(dp1014
I0
I0
sI20
I0
sI-45
I0
sI-20
I0
sI45
I0
ss(g2
g3
g3
g71
tp1015
(dp1016
I0
g8
(g10
S'\xd0\xb4\xf5\xbb\x9eF\x13\xc0'
tRp1017
sI20
g8
(g10
S')\x024.\xa4\xf5\x12\xc0'
tRp1018
sI-45
g8
(g10
S't\x08\xb1\xee\xe8\xab\x13\xc0'
tRp1019
sI-20
g8
(g10
S'\xe6\xbb\xaa\xa0\x1ak\x13\xc0'
tRp1020
sI45
g8
(g10
S'\xac8\xc7\x9e\x94\x1f\x10\xc0'
tRp1021
ss(g2
g3
g2
g17
tp1022
(dp1023
I0
I0
sI20
I0
sI-45
I0
sI-20
I0
sI45
F3.3616000000000001
ss(g4
g16
g2
g46
tp1024
(dp1025
I0
I0
sI20
I0
sI-45
I0
sI-20
I0
sI45
I0
ss(g16
g3
g3
g38
tp1026
(dp1027
I0
g8
(g10
S'\xcc\x8b;F\x9e\xbd\x03\xc0'
tRp1028
sI20
g8
(g10
S'\xfbP\xb6\x10\x91\x8a\x04\xc0'
tRp1029
sI-45
g8
(g10
S'\xf4:X9\x19g\x03\xc0'
tRp1030
sI-20
g8
(g10
S'\x001-h\x8f\xc4\x03\xc0'
tRp1031
sI45
g8
(g10
S'nC\xe2a%&\x02\xc0'
tRp1032
ss(g4
g4
g35
g90
tp1033
(dp1034
I0
I0
sI20
I0
sI-45
I0
sI-20
I0
sI45
I0
ss(g2
g4
g35
g90
tp1035
(dp1036
I0
I0
sI20
I0
sI-45
I0
sI-20
I0
sI45
I0
ss(g2
g3
g4
g32
tp1037
(dp1038
I0
I0
sI20
I0
sI-45
I0
sI-20
I0
sI45
I0
ss(g2
g16
g35
g46
tp1039
(dp1040
I0
I0
sI20
I0
sI-45
I0
sI-20
I0
sI45
I0
ss(g16
g2
g16
g38
tp1041
(dp1042
I0
I0
sI20
I0
sI-45
I0
sI-20
I0
sI45
I0
ss(g16
g35
g35
g5
tp1043
(dp1044
I0
I0
sI20
I0
sI-45
I0
sI-20
I0
sI45
I0
ss(g4
g4
g3
g17
tp1045
(dp1046
I0
I0
sI20
I0
sI-45
I0
sI-20
I0
sI45
I0
ss(g16
g4
g2
g71
tp1047
(dp1048
I0
I0
sI20
I0
sI-45
I0
sI-20
I0
sI45
I0
ss(g16
g35
g35
g90
tp1049
(dp1050
I0
I0
sI20
I0
sI-45
I0
sI-20
I0
sI45
I0
ss(g4
g3
g2
g5
tp1051
(dp1052
I0
I0
sI20
I0
sI-45
I0
sI-20
I0
sI45
I0
ss(g16
g3
g2
g5
tp1053
(dp1054
I0
g8
(g10
S'\xac\xf50S19\xfa\xbf'
tRp1055
sI20
g8
(g10
S'\xe0\xd0\xa5t\x01U\xf8\xbf'
tRp1056
sI-45
g8
(g10
S'\x9a\xd7\xdc\x87`\x8a\xf6\xbf'
tRp1057
sI-20
g8
(g10
S'?O\xb0\xed\xc3+\xf4\xbf'
tRp1058
sI45
g8
(g10
S'\x1aP\xa0w\xf0\xcf\xf4\xbf'
tRp1059
ss(g4
g16
g2
g90
tp1060
(dp1061
I0
I0
sI20
I0
sI-45
I0
sI-20
I0
sI45
I0
ss(g2
g3
g3
g90
tp1062
(dp1063
I0
I0
sI20
I0
sI-45
I0
sI-20
I0
sI45
I0
ss(g2
g4
g35
g46
tp1064
(dp1065
I0
I0
sI20
I0
sI-45
I0
sI-20
I0
sI45
I0
ss(g16
g35
g2
g71
tp1066
(dp1067
I0
I0
sI20
I0
sI-45
I0
sI-20
I0
sI45
I0
ss(g4
g2
g16
g24
tp1068
(dp1069
I0
I0
sI20
I0
sI-45
I0
sI-20
I0
sI45
I0
ss(g2
g35
g3
g102
tp1070
(dp1071
I0
I0
sI20
I0
sI-45
I0
sI-20
I0
sI45
I0
ss(g4
g35
g16
g17
tp1072
(dp1073
I0
I0
sI20
I0
sI-45
I0
sI-20
I0
sI45
I0
ss(g4
g16
g2
g17
tp1074
(dp1075
I0
I0
sI20
I0
sI-45
I0
sI-20
I0
sI45
I0
ss(g2
g16
g16
g24
tp1076
(dp1077
I0
I0
sI20
g8
(g10
S'p3\xd8\x8c\x8c\x14\xea\xbf'
tRp1078
sI-45
I0
sI-20
g8
(g10
S'\x92\xdc+\xa8a\x02\xbb\xbf'
tRp1079
sI45
g8
(g10
S'\x80\x9f3%W\x90\xeb\xbf'
tRp1080
ss(g16
g3
g16
g71
tp1081
(dp1082
I0
g8
(g10
S'\x8e^T\xdcR\x86\n\xc0'
tRp1083
sI20
g8
(g10
S'\x1b\x96\xfc\x1f~\xb7\t\xc0'
tRp1084
sI-45
g8
(g10
S'ma\xee\xcc\x0f\x0f\x0b\xc0'
tRp1085
sI-20
g8
(g10
S'[\xfeB\xe7W\xa6\x07\xc0'
tRp1086
sI45
g8
(g10
S' \xe4\xa8\x1e\x9b\xc1\x07\xc0'
tRp1087
ss(g2
g4
g2
g17
tp1088
(dp1089
I0
I0
sI20
F1
sI-45
I0
sI-20
I0
sI45
g8
(g10
S'\xb6\x16\xce\x10hI\xd2\xbf'
tRp1090
ss(g16
g35
g35
g17
tp1091
(dp1092
I0
I0
sI20
I0
sI-45
I0
sI-20
I0
sI45
I0
ss(g2
g4
g2
g38
tp1093
(dp1094
I0
g8
(g10
S'\xf3\x0c\xd5O;\xf7\x10\xc0'
tRp1095
sI20
g8
(g10
S'\x96\x93\xf7\x94\x8bu\x10\xc0'
tRp1096
sI-45
g8
(g10
S'7\xe7\x11\x01\xb1>\x11\xc0'
tRp1097
sI-20
g8
(g10
S'\x83sdo\x0b\xfb\x10\xc0'
tRp1098
sI45
g8
(g10
S'\xa9\x9b\xbc\xfe\x07\xdf\x10\xc0'
tRp1099
ss(g2
g16
g16
g17
tp1100
(dp1101
I0
I0
sI20
I0
sI-45
I0
sI-20
I0
sI45
I0
ss(g4
g35
g2
g102
tp1102
(dp1103
I0
I0
sI20
I0
sI-45
I0
sI-20
I0
sI45
I0
ss(g2
g2
g16
g32
tp1104
(dp1105
I0
I0
sI20
I0
sI-45
g8
(g10
S'Os\x90&U\x0c\xc1\xbf'
tRp1106
sI-20
I0
sI45
F1
ss(g2
g35
g3
g24
tp1107
(dp1108
I0
g8
(g10
S'\xa8\xbdsy\xec?\x0e\xc0'
tRp1109
sI20
g8
(g10
S'\xefibKG\xf4\x0e\xc0'
tRp1110
sI-45
g8
(g10
S's\x05\x9b\xfe<)\x0f\xc0'
tRp1111
sI-20
g8
(g10
S'\xa4C#\xf8\x87v\x0e\xc0'
tRp1112
sI45
g8
(g10
S'+\x06\xb3\xd0.\xec\r\xc0'
tRp1113
ss(g2
g35
g16
g71
tp1114
(dp1115
I0
g8
(g10
S'\xb5?\x1b@[\xc0\x0f\xc0'
tRp1116
sI20
g8
(g10
S"\x08\xb0P^'|\x0f\xc0"
tRp1117
sI-45
g8
(g10
S'O\x0c+q\xee\xcf\x0c\xc0'
tRp1118
sI-20
g8
(g10
S'\xf5@6\x13\\\x03\x10\xc0'
tRp1119
sI45
g8
(g10
S'\xcd1\x0fqb\xb0\x0f\xc0'
tRp1120
ss(g4
g2
g16
g46
tp1121
(dp1122
I0
I0
sI20
I0
sI-45
I0
sI-20
I0
sI45
I0
ss(g16
g4
g4
g102
tp1123
(dp1124
I0
I0
sI20
I0
sI-45
I0
sI-20
I0
sI45
I0
ss(g4
g35
g16
g5
tp1125
(dp1126
I0
I0
sI20
I0
sI-45
I0
sI-20
I0
sI45
I0
ss(g4
g2
g2
g71
tp1127
(dp1128
I0
I0
sI20
I0
sI-45
I0
sI-20
I0
sI45
I0
ss(g2
g16
g16
g46
tp1129
(dp1130
I0
I0
sI20
I0
sI-45
I0
sI-20
I0
sI45
I0
ss(g4
g4
g3
g38
tp1131
(dp1132
I0
I0
sI20
I0
sI-45
I0
sI-20
I0
sI45
I0
ss(g16
g35
g16
g71
tp1133
(dp1134
I0
I0
sI20
I0
sI-45
I0
sI-20
I0
sI45
I0
ss(g16
g16
g2
g17
tp1135
(dp1136
I0
I0
sI20
I0
sI-45
I0
sI-20
I0
sI45
I0
ss(g4
g16
g16
g17
tp1137
(dp1138
I0
I0
sI20
I0
sI-45
I0
sI-20
I0
sI45
I0
ss(g4
g16
g16
g38
tp1139
(dp1140
I0
I0
sI20
I0
sI-45
I0
sI-20
I0
sI45
I0
ss(g4
g2
g3
g38
tp1141
(dp1142
I0
I0
sI20
I0
sI-45
I0
sI-20
I0
sI45
I0
ss(g4
g2
g3
g90
tp1143
(dp1144
I0
I0
sI20
I0
sI-45
I0
sI-20
I0
sI45
I0
ss(g16
g35
g3
g38
tp1145
(dp1146
I0
g8
(g10
S'\x8f\x02\x9f\xee\xb4\xc3\xf9\xbf'
tRp1147
sI20
g8
(g10
S'\xe4\x01\xc8\xb21\x92\xf8\xbf'
tRp1148
sI-45
g8
(g10
S'\\\xfd\x07\xb2a\xed\xfc\xbf'
tRp1149
sI-20
g8
(g10
S'\x02\xfa\x98\xfek\xc6\xfb\xbf'
tRp1150
sI45
g8
(g10
S'$\xd3sj\xb3m\xfb\xbf'
tRp1151
ss(g2
g35
g16
g32
tp1152
(dp1153
I0
I0
sI20
I0
sI-45
I0
sI-20
I0
sI45
I0
ss(g16
g3
g3
g24
tp1154
(dp1155
I0
g8
(g10
S'\x10\xd2\xa0\xa6\x91\xe0\xea\xbf'
tRp1156
sI20
g8
(g10
S'\xe8 \xf6\x08\x8d,\x8d?'
tRp1157
sI-45
g8
(g10
S'O\x01\xebt\x18f\xd7\xbf'
tRp1158
sI-20
g8
(g10
S'\x8a\xdc\x04\xd2\\\x06\xd2\xbf'
tRp1159
sI45
g8
(g10
S'\x91\xde\x95a\xc4\x04\xc7\xbf'
tRp1160
ss(g2
g16
g3
g38
tp1161
(dp1162
I0
g8
(g10
S'n\xcc\x1a)\x84\xdd\n\xc0'
tRp1163
sI20
g8
(g10
S'}:]\x97\xff\xd3\n\xc0'
tRp1164
sI-45
g8
(g10
S'H\x92\x12.\x18:\x0b\xc0'
tRp1165
sI-20
g8
(g10
S'\xc1\xab\x15a\xa0\xee\x0c\xc0'
tRp1166
sI45
g8
(g10
S'_@F\x1f\xaf3\x0c\xc0'
tRp1167
ss(g16
g35
g16
g24
tp1168
(dp1169
I0
I0
sI20
I0
sI-45
I0
sI-20
I0
sI45
I0
ss(g4
g4
g4
g32
tp1170
(dp1171
I0
I0
sI20
I0
sI-45
I0
sI-20
I0
sI45
I0
ss(g2
g2
g35
g46
tp1172
(dp1173
I0
I0
sI20
g8
(g10
S'\x12p\x0fS\x1b\xe9\xda?'
tRp1174
sI-45
g8
(g10
S'\xb5\x91\xa0\xc6\xd1\xc6\xc0\xbf'
tRp1175
sI-20
I0
sI45
g8
(g10
S'*\xa5Q\xf2}]\xd8?'
tRp1176
ss(g2
g2
g4
g46
tp1177
(dp1178
I0
g8
(g10
S'\x8a\xbb .\xe2/\xb4\xbf'
tRp1179
sI20
g8
(g10
S'\x00\x85`\x80\xd6\xdb\x80\xbf'
tRp1180
sI-45
g8
(g10
S'A\xd2\xd6p\xbb\xad\xe2\xbf'
tRp1181
sI-20
I0
sI45
F1.8
ss(g4
g35
g35
g17
tp1182
(dp1183
I0
I0
sI20
I0
sI-45
I0
sI-20
I0
sI45
I0
ss(g2
g2
g35
g32
tp1184
(dp1185
I0
g8
(g10
S'F\x8c\x05\x10k\x1f\xf8?'
tRp1186
sI20
I0
sI-45
I0
sI-20
I0
sI45
g8
(g10
S'J\x9d\xbfw\xb3\xb0\xeb\xbf'
tRp1187
ss(g16
g2
g35
g32
tp1188
(dp1189
I0
I0
sI20
I0
sI-45
I0
sI-20
I0
sI45
I0
ss(g16
g4
g35
g24
tp1190
(dp1191
I0
I0
sI20
I0
sI-45
I0
sI-20
I0
sI45
I0
ss(g2
g16
g3
g46
tp1192
(dp1193
I0
I0
sI20
I0
sI-45
I0
sI-20
I0
sI45
I0
ss(g16
g2
g35
g46
tp1194
(dp1195
I0
I0
sI20
I0
sI-45
I0
sI-20
I0
sI45
I0
ss(g2
g2
g3
g102
tp1196
(dp1197
I0
I0
sI20
I0
sI-45
I0
sI-20
I0
sI45
I0
ss(g16
g3
g3
g32
tp1198
(dp1199
I0
I0
sI20
I0
sI-45
I0
sI-20
I0
sI45
I0
ss(g4
g16
g3
g24
tp1200
(dp1201
I0
I0
sI20
I0
sI-45
I0
sI-20
I0
sI45
I0
ss(g4
g35
g4
g102
tp1202
(dp1203
I0
I0
sI20
I0
sI-45
I0
sI-20
I0
sI45
I0
ss(g4
g2
g3
g46
tp1204
(dp1205
I0
I0
sI20
I0
sI-45
I0
sI-20
I0
sI45
I0
ss(g2
g2
g4
g38
tp1206
(dp1207
I0
g8
(g10
S'\x02^9\x914\xef\r\xc0'
tRp1208
sI20
g8
(g10
S'\x03\xc01\x1cdR\r\xc0'
tRp1209
sI-45
g8
(g10
S"0K'PIh\x0e\xc0"
tRp1210
sI-20
g8
(g10
S'\xae|iT\x03\xff\x0e\xc0'
tRp1211
sI45
g8
(g10
S'&\xe8\x9c~\x9cm\x0e\xc0'
tRp1212
ss(g2
g2
g2
g102
tp1213
(dp1214
I0
I0
sI20
I0
sI-45
I0
sI-20
I0
sI45
I0
ss(g4
g4
g2
g71
tp1215
(dp1216
I0
I0
sI20
I0
sI-45
I0
sI-20
I0
sI45
I0
ss(g2
g2
g35
g102
tp1217
(dp1218
I0
I0
sI20
I0
sI-45
I0
sI-20
I0
sI45
I0
ss(g2
g16
g4
g46
tp1219
(dp1220
I0
g8
(g10
S'e8\xa3c\x13\x95\xd2\xbf'
tRp1221
sI20
g8
(g10
S'\xe5 \xb4fe\xb7\xd2\xbf'
tRp1222
sI-45
I0
sI-20
I0
sI45
g8
(g10
S'k3u\x07\xaf\x1d\xc1\xbf'
tRp1223
ss(g4
g4
g4
g102
tp1224
(dp1225
I0
I0
sI20
I0
sI-45
I0
sI-20
I0
sI45
I0
ss(g4
g4
g2
g38
tp1226
(dp1227
I0
I0
sI20
I0
sI-45
I0
sI-20
I0
sI45
I0
ss(g4
g16
g3
g32
tp1228
(dp1229
I0
I0
sI20
I0
sI-45
I0
sI-20
I0
sI45
I0
ss(g4
g16
g16
g46
tp1230
(dp1231
I0
I0
sI20
I0
sI-45
I0
sI-20
I0
sI45
I0
ss(g2
g16
g4
g90
tp1232
(dp1233
I0
I0
sI20
I0
sI-45
I0
sI-20
I0
sI45
I0
ss(g4
g35
g2
g90
tp1234
(dp1235
I0
I0
sI20
I0
sI-45
I0
sI-20
I0
sI45
I0
ss(g4
g16
g35
g90
tp1236
(dp1237
I0
I0
sI20
I0
sI-45
I0
sI-20
I0
sI45
I0
ss(g16
g2
g16
g17
tp1238
(dp1239
I0
I0
sI20
I0
sI-45
I0
sI-20
I0
sI45
I0
ss(g16
g2
g4
g38
tp1240
(dp1241
I0
I0
sI20
I0
sI-45
I0
sI-20
I0
sI45
I0
ss(g2
g35
g35
g32
tp1242
(dp1243
I0
I0
sI20
g8
(g10
S'\xe0X\xeb\xd4eW\xe0?'
tRp1244
sI-45
I0
sI-20
I0
sI45
I0
ss(g4
g35
g3
g5
tp1245
(dp1246
I0
I0
sI20
I0
sI-45
I0
sI-20
I0
sI45
I0
ss(g4
g4
g3
g102
tp1247
(dp1248
I0
I0
sI20
I0
sI-45
I0
sI-20
I0
sI45
I0
ss(g2
g16
g4
g24
tp1249
(dp1250
I0
I0
sI20
I0
sI-45
I0
sI-20
I0
sI45
g8
(g10
S'\xb7\xab\xa89\x93:\xf1?'
tRp1251
ss(g2
g16
g35
g32
tp1252
(dp1253
I0
I0
sI20
I0
sI-45
I0
sI-20
I0
sI45
I0
ss(g2
g2
g16
g38
tp1254
(dp1255
I0
g8
(g10
S'f-\xc7\xc2\xd9\x1d\x03\xc0'
tRp1256
sI20
g8
(g10
S'2\x8c\x99\x18")\x03\xc0'
tRp1257
sI-45
g8
(g10
S'\xe1\xb8@\t\x1d\x05\x01\xc0'
tRp1258
sI-20
g8
(g10
S'\x01~_*{\x98\x02\xc0'
tRp1259
sI45
g8
(g10
S'}u-\x05$\xfd\x00\xc0'
tRp1260
ss(g16
g35
g16
g5
tp1261
(dp1262
I0
I0
sI20
I0
sI-45
I0
sI-20
I0
sI45
I0
ss(g4
g35
g2
g46
tp1263
(dp1264
I0
I0
sI20
I0
sI-45
I0
sI-20
I0
sI45
I0
ss(g4
g16
g4
g71
tp1265
(dp1266
I0
I0
sI20
I0
sI-45
I0
sI-20
I0
sI45
I0
ss(g16
g3
g35
g5
tp1267
(dp1268
I0
g8
(g10
S'F^\xc7\x9f|\xbf\xe6\xbf'
tRp1269
sI20
g8
(g10
S'\xc6@C\xd1n\xfb\xed\xbf'
tRp1270
sI-45
g8
(g10
S'\xbc\x04\x95\xa4j$\xee\xbf'
tRp1271
sI-20
g8
(g10
S'\x98\xd1\x17\xec\xbd\x1a\xeb\xbf'
tRp1272
sI45
g8
(g10
S'\xb9\xc7M\xf8\\S\xe7\xbf'
tRp1273
ss(g4
g4
g16
g90
tp1274
(dp1275
I0
I0
sI20
I0
sI-45
I0
sI-20
I0
sI45
I0
ss(g4
g16
g4
g46
tp1276
(dp1277
I0
I0
sI20
I0
sI-45
I0
sI-20
I0
sI45
I0
ss(g2
g2
g2
g46
tp1278
(dp1279
I0
g8
(g10
S'\xfb(\xc6\xde\xf9\x07\xe5\xbf'
tRp1280
sI20
g8
(g10
S'\xf0\x9b\xd3Fo\xe9\xdc\xbf'
tRp1281
sI-45
g8
(g10
S'L\x95\xda\xab\xeb\x90\xfd?'
tRp1282
sI-20
g8
(g10
S'\x9f\xc0a\x83\x0e\x19\xc0\xbf'
tRp1283
sI45
g8
(g10
S'\xa2H\xc3\xc5\xa3\xf9\xeb\xbf'
tRp1284
ss(g16
g2
g16
g5
tp1285
(dp1286
I0
I0
sI20
I0
sI-45
I0
sI-20
I0
sI45
I0
ss(g2
g4
g2
g102
tp1287
(dp1288
I0
I0
sI20
I0
sI-45
I0
sI-20
I0
sI45
I0
ss(g2
g2
g16
g24
tp1289
(dp1290
I0
g8
(g10
S'H\xa3\xb9\x9fR\xaa\xd2\xbf'
tRp1291
sI20
I0
sI-45
I0
sI-20
g8
(g10
S'\x9d>\xca\x82\x9b\x8e\xe8\xbf'
tRp1292
sI45
g8
(g10
S'\xa5\n~Q\xbe\x1d\xe8\xbf'
tRp1293
ss(g4
g16
g4
g24
tp1294
(dp1295
I0
I0
sI20
I0
sI-45
I0
sI-20
I0
sI45
I0
ss(g2
g35
g3
g5
tp1296
(dp1297
I0
g8
(g10
S'\x17\xf9\xe0\x07O\xf2\x11\xc0'
tRp1298
sI20
g8
(g10
S'(\xff#2\xde7\x12\xc0'
tRp1299
sI-45
g8
(g10
S'\x81\xc9~I\xfcZ\x11\xc0'
tRp1300
sI-20
g8
(g10
S'\xea\x94t\x8a\xe9\x8e\x11\xc0'
tRp1301
sI45
g8
(g10
S'S\xea\xa9\x8fY\x0e\x12\xc0'
tRp1302
ss(g2
g35
g3
g38
tp1303
(dp1304
I0
g8
(g10
S'Mg\xd6/\xa9\xac\x06\xc0'
tRp1305
sI20
g8
(g10
S'\x18\xd9\x1c\xc9>\xb0\x06\xc0'
tRp1306
sI-45
g8
(g10
S'\xc66:\xb2N6\x08\xc0'
tRp1307
sI-20
g8
(g10
S'\x19\xb6x\xa0\x95\xfd\x03\xc0'
tRp1308
sI45
g8
(g10
S'\xdc\x99\xc7\xda\xfb\xee\x06\xc0'
tRp1309
ss(g16
g2
g4
g17
tp1310
(dp1311
I0
I0
sI20
I0
sI-45
I0
sI-20
I0
sI45
I0
ss(g16
g35
g3
g32
tp1312
(dp1313
I0
I0
sI20
I0
sI-45
I0
sI-20
I0
sI45
F1
ss(g4
g3
g2
g90
tp1314
(dp1315
I0
I0
sI20
I0
sI-45
I0
sI-20
I0
sI45
I0
ss(g2
g35
g2
g38
tp1316
(dp1317
I0
g8
(g10
S"T\xc8y'\xc2&\x12\xc0"
tRp1318
sI20
g8
(g10
S'do#\x81\xce\x1c\x11\xc0'
tRp1319
sI-45
g8
(g10
S"%i\x8b'r\xce\x11\xc0"
tRp1320
sI-20
g8
(g10
S'$\x9f\xfa:\xfb\xd7\x11\xc0'
tRp1321
sI45
g8
(g10
S'>\xfe\xa7g,\xcb\x11\xc0'
tRp1322
ss(g2
g4
g3
g17
tp1323
(dp1324
I0
g8
(g10
S'\xe4\xd1G\xffB\xd2\xf4?'
tRp1325
sI20
g8
(g10
S'\xbax\xaf\x15\x96\xd2\xf9?'
tRp1326
sI-45
g8
(g10
S'\xe0Gv\x99\xac{\xe0?'
tRp1327
sI-20
F1.8
sI45
g8
(g10
S'\xc2\x11X&\x8ap\xfb?'
tRp1328
ss(g16
g4
g3
g5
tp1329
(dp1330
I0
g8
(g10
S'"3\x81\xbfV\t\x10\xc0'
tRp1331
sI20
g8
(g10
S'\x8b\xf8\x16\xf6\xacw\x0e\xc0'
tRp1332
sI-45
g8
(g10
S'\xb3\x18\x04\xb5\x13\xcb\x0c\xc0'
tRp1333
sI-20
g8
(g10
S'\xc6\x85X\xc6I\xc9\x0e\xc0'
tRp1334
sI45
g8
(g10
S'#\xcc\x84\xa2\x9dH\x0f\xc0'
tRp1335
ss(g4
g4
g2
g102
tp1336
(dp1337
I0
I0
sI20
I0
sI-45
I0
sI-20
I0
sI45
I0
ss(g2
g4
g3
g24
tp1338
(dp1339
I0
g8
(g10
S'\xb6W\xf2aR\xf8\n\xc0'
tRp1340
sI20
g8
(g10
S'M\x841\xb8j\x10\x05\xc0'
tRp1341
sI-45
g8
(g10
S'\xed4\x1f\x7f\xac*\n\xc0'
tRp1342
sI-20
g8
(g10
S'~x\x832E\x0b\n\xc0'
tRp1343
sI45
g8
(g10
S'\xf3&\xed]--\n\xc0'
tRp1344
ss(g4
g3
g4
g38
tp1345
(dp1346
I0
I0
sI20
I0
sI-45
I0
sI-20
I0
sI45
I0
ss(g16
g16
g2
g102
tp1347
(dp1348
I0
I0
sI20
I0
sI-45
I0
sI-20
I0
sI45
I0
ss(g4
g2
g4
g5
tp1349
(dp1350
I0
I0
sI20
I0
sI-45
I0
sI-20
I0
sI45
I0
ss(g4
g3
g4
g5
tp1351
(dp1352
I0
I0
sI20
I0
sI-45
I0
sI-20
I0
sI45
I0
ss(g16
g2
g4
g24
tp1353
(dp1354
I0
I0
sI20
I0
sI-45
I0
sI-20
I0
sI45
I0
ss(g16
g4
g2
g32
tp1355
(dp1356
I0
I0
sI20
F1
sI-45
I0
sI-20
I0
sI45
g8
(g10
S"'P\x97\x1cE\xe7\xd1\xbf"
tRp1357
ss(g4
g3
g35
g90
tp1358
(dp1359
I0
I0
sI20
I0
sI-45
I0
sI-20
I0
sI45
I0
ss(g16
g2
g3
g38
tp1360
(dp1361
I0
g8
(g10
S'\xf5fc9\\\x95\x05\xc0'
tRp1362
sI20
g8
(g10
S'\xa0\xb1\xb4\x02&N\x04\xc0'
tRp1363
sI-45
g8
(g10
S'0\x0cN\x01\xaf\xc3\x04\xc0'
tRp1364
sI-20
g8
(g10
S'\xd6\xb4\xfb\x07\xcat\x02\xc0'
tRp1365
sI45
g8
(g10
S'\x1e\x99\xfaPde\x04\xc0'
tRp1366
ss(g2
g3
g16
g5
tp1367
(dp1368
I0
g8
(g10
S'\x93\x9f/&N\xa2\x11\xc0'
tRp1369
sI20
g8
(g10
S'?\xc9W^2 \x12\xc0'
tRp1370
sI-45
g8
(g10
S"\xe6\x90\xae\xc9\x8c'\x12\xc0"
tRp1371
sI-20
g8
(g10
S'\xbf\x896\xc1\xbe.\x12\xc0'
tRp1372
sI45
g8
(g10
S'>N\xe6\x10q>\x12\xc0'
tRp1373
ss(g2
g4
g3
g5
tp1374
(dp1375
I0
g8
(g10
S'\x84\xfc\xd3\x88\x12\t\x13\xc0'
tRp1376
sI20
g8
(g10
S'\x9bj6{\xdc{\x12\xc0'
tRp1377
sI-45
g8
(g10
S'\xb6\x15\xb9\xcb\xae\xac\x13\xc0'
tRp1378
sI-20
g8
(g10
S'\x83\x80m\xc69\xcf\x13\xc0'
tRp1379
sI45
g8
(g10
S'\xf9\xb0\xbb\xde\x9aI\x11\xc0'
tRp1380
ss(g2
g4
g16
g102
tp1381
(dp1382
I0
I0
sI20
I0
sI-45
I0
sI-20
I0
sI45
I0
ss(g16
g4
g3
g17
tp1383
(dp1384
I0
I0
sI20
I0
sI-45
g8
(g10
S'\x90\xbaG\xd5z\xbf\xdf\xbf'
tRp1385
sI-20
I0
sI45
I0
ss(g16
g16
g3
g102
tp1386
(dp1387
I0
I0
sI20
I0
sI-45
I0
sI-20
I0
sI45
I0
ss(g16
g3
g4
g32
tp1388
(dp1389
I0
I0
sI20
I0
sI-45
I0
sI-20
I0
sI45
I0
ss(g16
g3
g4
g5
tp1390
(dp1391
I0
g8
(g10
S'\xc9\xb6\xad\xe4\x106\t\xc0'
tRp1392
sI20
g8
(g10
S'\xf0\xab\x8a\r5\x00\x05\xc0'
tRp1393
sI-45
g8
(g10
S':\xb9|U\x933\t\xc0'
tRp1394
sI-20
g8
(g10
S'\xfc\xc7\x01\x94\x10-\x0e\xc0'
tRp1395
sI45
g8
(g10
S'\\r8\xf9\x105\t\xc0'
tRp1396
ss(g2
g16
g3
g17
tp1397
(dp1398
I0
g8
(g10
S'\x92\x06\xc4\xdd\xf7G\xc0\xbf'
tRp1399
sI20
g8
(g10
S'\xb4\x15\xc1,%=\xb1\xbf'
tRp1400
sI-45
g8
(g10
S'f-\xe6\xd6\xe1\xfc\xef?'
tRp1401
sI-20
I0
sI45
g8
(g10
S'f\xa6\xba\x86\xf0w\x0e@'
tRp1402
ss(g4
g4
g3
g90
tp1403
(dp1404
I0
I0
sI20
I0
sI-45
I0
sI-20
I0
sI45
I0
ss(g16
g35
g4
g71
tp1405
(dp1406
I0
I0
sI20
I0
sI-45
I0
sI-20
I0
sI45
I0
ss(g4
g35
g4
g90
tp1407
(dp1408
I0
I0
sI20
I0
sI-45
I0
sI-20
I0
sI45
I0
ss(g16
g16
g3
g32
tp1409
(dp1410
I0
I0
sI20
I0
sI-45
I0
sI-20
I0
sI45
I0
ss(g2
g16
g3
g24
tp1411
(dp1412
I0
g8
(g10
S'\x14\xb7\xfc\x02[\xdb\x02\xc0'
tRp1413
sI20
g8
(g10
S'\x9eYY$\xa3\x95\x03\xc0'
tRp1414
sI-45
g8
(g10
S'\xa6\x0c\x97O2N\x04\xc0'
tRp1415
sI-20
g8
(g10
S'\xb7\x7f\x93I\xab\x91\x03\xc0'
tRp1416
sI45
g8
(g10
S'B\x81\xb8\xef\x9cf\x03\xc0'
tRp1417
ss(g4
g16
g4
g5
tp1418
(dp1419
I0
I0
sI20
I0
sI-45
I0
sI-20
I0
sI45
I0
ss(g2
g4
g16
g32
tp1420
(dp1421
I0
g8
(g10
S'\xfau\x0bZY%\xea\xbf'
tRp1422
sI20
g8
(g10
S"\xda'\xe5\x8eqK\xe6\xbf"
tRp1423
sI-45
g8
(g10
S'N\x01\x8a\xac\xa0}\xe8?'
tRp1424
sI-20
g8
(g10
S'\x97\xdb\x9b\x92\xa5K\xb5\xbf'
tRp1425
sI45
g8
(g10
S'E\xee\x05\xf4\x04\xa1\xd2\xbf'
tRp1426
ss(g16
g2
g3
g24
tp1427
(dp1428
I0
g8
(g10
S'/\xd3\x82\xaa\xfd\xfa\xdf\xbf'
tRp1429
sI20
g8
(g10
S'\x85\x97\xfe\xe7d1\xf0\xbf'
tRp1430
sI-45
g8
(g10
S'\xf5\x1b\xce\xa6\x1c|\xf0\xbf'
tRp1431
sI-20
g8
(g10
S'\x95\xe9\xad\x1e\xcc\x1f\xf0\xbf'
tRp1432
sI45
g8
(g10
S')\x16$x\x99\x12\xf1\xbf'
tRp1433
ss(g16
g2
g2
g46
tp1434
(dp1435
I0
I0
sI20
I0
sI-45
I0
sI-20
I0
sI45
g8
(g10
S'(\x1b\xfb\x1b|\x9a\xd1\xbf'
tRp1436
ss(g4
g2
g3
g24
tp1437
(dp1438
I0
I0
sI20
I0
sI-45
I0
sI-20
I0
sI45
I0
ss(g16
g2
g2
g32
tp1439
(dp1440
I0
I0
sI20
g8
(g10
S'\x9a\xf8F\x9bPa\xd2\xbf'
tRp1441
sI-45
I0
sI-20
I0
sI45
g8
(g10
S'K\xaa\x01\x9b\x08\x89\xd2\xbf'
tRp1442
ss(g2
g16
g2
g17
tp1443
(dp1444
I0
I0
sI20
I0
sI-45
I0
sI-20
I0
sI45
I0
ss(g2
g3
g3
g24
tp1445
(dp1446
I0
g8
(g10
S'Ta\xd3\x12\x87\x9c\x0f\xc0'
tRp1447
sI20
g8
(g10
S"\xca\x82\xc1\x15'\xda\x02\xc0"
tRp1448
sI-45
g8
(g10
S'\xb2\xc7\x12#\xbaW\x10\xc0'
tRp1449
sI-20
g8
(g10
S'\x18:\xb9Jy\x87\r\xc0'
tRp1450
sI45
g8
(g10
S'\xf9\x8b\xa5YH%\x0e\xc0'
tRp1451
ss(g16
g35
g16
g38
tp1452
(dp1453
I0
I0
sI20
I0
sI-45
I0
sI-20
I0
sI45
I0
ss(g4
g16
g16
g71
tp1454
(dp1455
I0
I0
sI20
I0
sI-45
I0
sI-20
I0
sI45
I0
ss(g2
g3
g3
g17
tp1456
(dp1457
I0
g8
(g10
S'`\xadL\xee\x19F\xff?'
tRp1458
sI20
g8
(g10
S'\xe3\x05T\x00P\x8b\x11@'
tRp1459
sI-45
g8
(g10
S';\xdcQ\xd1\x84\x87\t@'
tRp1460
sI-20
g8
(g10
S'\xb3yY\x0e\xbb\x87\x03@'
tRp1461
sI45
g8
(g10
S'\x04\xbf\x99\xa4\xe8u\xfb?'
tRp1462
ss(g16
g16
g35
g5
tp1463
(dp1464
I0
I0
sI20
I0
sI-45
I0
sI-20
I0
sI45
I0
ss(g16
g3
g4
g17
tp1465
(dp1466
I0
I0
sI20
I0
sI-45
I0
sI-20
I0
sI45
I0
ss(g2
g2
g35
g90
tp1467
(dp1468
I0
I0
sI20
g8
(g10
S'`;\xce\xd0\xf1\xc7\xcf\xbf'
tRp1469
sI-45
I0
sI-20
g8
(g10
S'\x92\xdc\x15^\xd7\t\xc1\xbf'
tRp1470
sI45
g8
(g10
S'e\xb5\xdf\xf0\x84\xa8\xca\xbf'
tRp1471
ss(g4
g3
g4
g102
tp1472
(dp1473
I0
I0
sI20
I0
sI-45
I0
sI-20
I0
sI45
I0
ss(g16
g2
g3
g46
tp1474
(dp1475
I0
I0
sI20
I0
sI-45
I0
sI-20
I0
sI45
I0
ss(g16
g4
g3
g32
tp1476
(dp1477
I0
g8
(g10
S'\xd0\xa9)n(\xb0\xc8?'
tRp1478
sI20
g8
(g10
S'TB\x96\xb3L\n\xdb\xbf'
tRp1479
sI-45
g8
(g10
S'OE\xbf7\\j\xfb?'
tRp1480
sI-20
g8
(g10
S'\xc89\x00\xb0w\xd7\xe5\xbf'
tRp1481
sI45
g8
(g10
S'e\xfb\xc3\x15\x97U\x07@'
tRp1482
ss(g2
g16
g4
g38
tp1483
(dp1484
I0
g8
(g10
S'\x12\x1eB\x90\xd9\xc5\x10\xc0'
tRp1485
sI20
g8
(g10
S'\x01\x15B\x80|\xde\x10\xc0'
tRp1486
sI-45
g8
(g10
S'\xd2\xac\xe0j\xa6\x83\x10\xc0'
tRp1487
sI-20
g8
(g10
S'\xcf\xb5\x05"{\xca\x10\xc0'
tRp1488
sI45
g8
(g10
S'.\xbd\xba\x973\x92\x10\xc0'
tRp1489
ss(g2
g3
g35
g5
tp1490
(dp1491
I0
g8
(g10
S'\xf5[|k>a\x11\xc0'
tRp1492
sI20
g8
(g10
S'\x8d_n\x84(\x8c\x10\xc0'
tRp1493
sI-45
g8
(g10
S'X\xb9\x1aG\xe6V\x11\xc0'
tRp1494
sI-20
g8
(g10
S'\xf4~\xcb=zJ\x11\xc0'
tRp1495
sI45
g8
(g10
S'4\n}i:{\x11\xc0'
tRp1496
ss(g4
g2
g2
g5
tp1497
(dp1498
I0
I0
sI20
I0
sI-45
I0
sI-20
I0
sI45
I0
ss(g2
g3
g35
g38
tp1499
(dp1500
I0
g8
(g10
S'\xc2_T\xda\xdd3\x12\xc0'
tRp1501
sI20
g8
(g10
S'\xcf>h2}G\x12\xc0'
tRp1502
sI-45
g8
(g10
S'\x8c\xf1\x93\x0e\xce.\x12\xc0'
tRp1503
sI-20
g8
(g10
S'C9u\x9f\xe9\xae\x11\xc0'
tRp1504
sI45
g8
(g10
S'k\xd0a\x1c\xce-\x12\xc0'
tRp1505
ss(g16
g4
g2
g17
tp1506
(dp1507
I0
I0
sI20
I0
sI-45
I0
sI-20
I0
sI45
I0
ss(g2
g4
g4
g32
tp1508
(dp1509
I0
g8
(g10
S'#\xeb\xff\x7f`\x9e\xd2\xbf'
tRp1510
sI20
g8
(g10
S'\xf0 \x03\xe9\x1f\x8d\xbd\xbf'
tRp1511
sI-45
I0
sI-20
I0
sI45
g8
(g10
S'\xaf\x89g\x93\x8d`\xd2\xbf'
tRp1512
ss(g2
g2
g2
g71
tp1513
(dp1514
I0
g8
(g10
S'\xd0S\xa3\xa5\n\xb8\x11\xc0'
tRp1515
sI20
g8
(g10
S'\xdeI\x1e\xca%"\x12\xc0'
tRp1516
sI-45
g8
(g10
S'x\x85`\x98\xe7\n\x12\xc0'
tRp1517
sI-20
g8
(g10
S'[)!\xb8\xd9\xae\x0f\xc0'
tRp1518
sI45
g8
(g10
S'G\xfd\xe4x\x94\xac\x10\xc0'
tRp1519
ss(g2
g16
g35
g5
tp1520
(dp1521
I0
g8
(g10
S'\xc1r\xdd\x1a\xbd\xc5\x10\xc0'
tRp1522
sI20
g8
(g10
S'\xd6\x1e\xb1\x8c\xd9\xa7\x10\xc0'
tRp1523
sI-45
g8
(g10
S'\x00\xa8u\xfer\x99\x10\xc0'
tRp1524
sI-20
g8
(g10
S'M\xfdn\xa1\ti\x10\xc0'
tRp1525
sI45
g8
(g10
S'\\9;\x04t\x8e\x10\xc0'
tRp1526
ss(g16
g2
g3
g90
tp1527
(dp1528
I0
I0
sI20
g8
(g10
S'D\xb5\xe5\xdb\xcb\x9f\xc9\xbf'
tRp1529
sI-45
I0
sI-20
I0
sI45
I0
ss(g16
g3
g35
g102
tp1530
(dp1531
I0
I0
sI20
I0
sI-45
I0
sI-20
I0
sI45
I0
ss(g2
g3
g35
g24
tp1532
(dp1533
I0
g8
(g10
S'G6\xb6g\x0e\x8e\x0b\xc0'
tRp1534
sI20
g8
(g10
S'\x86x\x15#\xb0?\x0c\xc0'
tRp1535
sI-45
g8
(g10
S'\x99\xdb\x89\xa4\x82\x87\x08\xc0'
tRp1536
sI-20
g8
(g10
S'\x98\xe8x\x11\xe7 \x0c\xc0'
tRp1537
sI45
g8
(g10
S'r1\x18\xb7U\x92\n\xc0'
tRp1538
ss(g4
g3
g35
g102
tp1539
(dp1540
I0
I0
sI20
I0
sI-45
I0
sI-20
I0
sI45
I0
ss(g4
g2
g35
g24
tp1541
(dp1542
I0
I0
sI20
I0
sI-45
I0
sI-20
I0
sI45
I0
ss(g2
g3
g35
g17
tp1543
(dp1544
I0
I0
sI20
F1
sI-45
I0
sI-20
g8
(g10
S'r\xe8\n\xa6\xdf\xaa\xd4?'
tRp1545
sI45
F1
ss(g16
g35
g2
g102
tp1546
(dp1547
I0
I0
sI20
I0
sI-45
I0
sI-20
I0
sI45
I0
ss(g16
g35
g35
g71
tp1548
(dp1549
I0
g8
(g10
S'$\x83dX\x1d\x12\xcc\xbf'
tRp1550
sI20
g8
(g10
S' 222\x08\xe3\xcb\xbf'
tRp1551
sI-45
I0
sI-20
I0
sI45
g8
(g10
S'\xe4J\xa8c\x0f#\xcf\xbf'
tRp1552
ss(g16
g3
g2
g71
tp1553
(dp1554
I0
g8
(g10
S'\xf1vw+\xc8c\x04\xc0'
tRp1555
sI20
g8
(g10
S'Rtll\xa2\xd8\x03\xc0'
tRp1556
sI-45
g8
(g10
S'?^\xf8/\x1d\x1b\x03\xc0'
tRp1557
sI-20
g8
(g10
S'F \xb7\xff\x16(\x04\xc0'
tRp1558
sI45
g8
(g10
S'\xc9\x95D+\x18\x1b\x05\xc0'
tRp1559
ss(g2
g3
g2
g38
tp1560
(dp1561
I0
g8
(g10
S'S\xe7\x98\x89\xc1|\x12\xc0'
tRp1562
sI20
g8
(g10
S'P\xc5Q\xde\xf3o\x12\xc0'
tRp1563
sI-45
g8
(g10
S'\x8d\xe3R\xec\x0fE\x12\xc0'
tRp1564
sI-20
g8
(g10
S'_\xaf\xe9\xad:\x05\x11\xc0'
tRp1565
sI45
g8
(g10
S'\xef\x93I\xb3\xde\xdb\x12\xc0'
tRp1566
ss(g4
g3
g16
g17
tp1567
(dp1568
I0
I0
sI20
I0
sI-45
I0
sI-20
I0
sI45
I0
ss(g16
g35
g2
g90
tp1569
(dp1570
I0
I0
sI20
I0
sI-45
I0
sI-20
I0
sI45
I0
ss(g16
g35
g2
g5
tp1571
(dp1572
I0
I0
sI20
I0
sI-45
I0
sI-20
I0
sI45
I0
ss(g16
g3
g4
g38
tp1573
(dp1574
I0
g8
(g10
S'\xd2 \x14\xa9\x0e\xf3\x04\xc0'
tRp1575
sI20
g8
(g10
S"\x0c\x91\xe3'\x95`\x00\xc0"
tRp1576
sI-45
g8
(g10
S'\x06g\x9c\x12\xd5\x0b\x06\xc0'
tRp1577
sI-20
g8
(g10
S'"f?h\x11\x90\x07\xc0'
tRp1578
sI45
g8
(g10
S'\xae9`\x00\xf9O\x00\xc0'
tRp1579
ss(g2
g3
g3
g38
tp1580
(dp1581
I0
g8
(g10
S'\x10\x15g\x98@\x9d\x12\xc0'
tRp1582
sI20
g8
(g10
S'\xa0\xcb^\xf7V\t\x13\xc0'
tRp1583
sI-45
g8
(g10
S'J\x80\xca\xbbj\xe8\x0c\xc0'
tRp1584
sI-20
g8
(g10
S'\x0e\xces\x98\x1c \x13\xc0'
tRp1585
sI45
g8
(g10
S'Or[\xbaA\x8c\x13\xc0'
tRp1586
ss(g4
g16
g4
g38
tp1587
(dp1588
I0
I0
sI20
I0
sI-45
I0
sI-20
I0
sI45
I0
ss(g2
g4
g4
g102
tp1589
(dp1590
I0
I0
sI20
I0
sI-45
I0
sI-20
I0
sI45
I0
ss(g16
g35
g3
g46
tp1591
(dp1592
I0
I0
sI20
I0
sI-45
I0
sI-20
I0
sI45
I0
ss(g16
g2
g16
g102
tp1593
(dp1594
I0
I0
sI20
I0
sI-45
I0
sI-20
I0
sI45
I0
ss(g4
g2
g2
g102
tp1595
(dp1596
I0
I0
sI20
I0
sI-45
I0
sI-20
I0
sI45
I0
ss(g16
g35
g4
g24
tp1597
(dp1598
I0
I0
sI20
I0
sI-45
I0
sI-20
I0
sI45
I0
ss(g4
g2
g4
g38
tp1599
(dp1600
I0
I0
sI20
I0
sI-45
I0
sI-20
I0
sI45
I0
ss(g16
g2
g16
g32
tp1601
(dp1602
I0
I0
sI20
I0
sI-45
I0
sI-20
g8
(g10
S'"\xe3\x02\xaay\xa3\xe8?'
tRp1603
sI45
I0
ss(g4
g3
g4
g71
tp1604
(dp1605
I0
I0
sI20
I0
sI-45
I0
sI-20
I0
sI45
I0
ss(g16
g2
g16
g90
tp1606
(dp1607
I0
I0
sI20
I0
sI-45
I0
sI-20
I0
sI45
I0
ss(g16
g3
g35
g46
tp1608
(dp1609
I0
I0
sI20
g8
(g10
S' k\xeb\x8d\x05\xf2\xbf?'
tRp1610
sI-45
I0
sI-20
I0
sI45
g8
(g10
S'\xc3\x18X\xf7N\xe8\xe3\xbf'
tRp1611
ss(g2
g3
g16
g90
tp1612
(dp1613
I0
I0
sI20
I0
sI-45
I0
sI-20
I0
sI45
I0
ss(g4
g3
g4
g90
tp1614
(dp1615
I0
I0
sI20
I0
sI-45
I0
sI-20
I0
sI45
I0
ss(g4
g3
g3
g17
tp1616
(dp1617
I0
I0
sI20
I0
sI-45
I0
sI-20
I0
sI45
I0
ss(g16
g35
g3
g90
tp1618
(dp1619
I0
I0
sI20
I0
sI-45
I0
sI-20
I0
sI45
g8
(g10
S'\xda\xb3\xd0\xb8\x14\\\xde?'
tRp1620
ss(g2
g16
g35
g71
tp1621
(dp1622
I0
g8
(g10
S'\xb5\x85\x87\x99\xee\x17\xf3\xbf'
tRp1623
sI20
g8
(g10
S'\t\xc1\x19~\x8cz\xe9\xbf'
tRp1624
sI-45
g8
(g10
S'xe-\x0b\x04g\xeb\xbf'
tRp1625
sI-20
g8
(g10
S'\x08\xbb0[%\x03\xea\xbf'
tRp1626
sI45
g8
(g10
S'BX(wME\xe3\xbf'
tRp1627
ss(g4
g3
g35
g5
tp1628
(dp1629
I0
I0
sI20
I0
sI-45
I0
sI-20
I0
sI45
I0
ss(g4
g3
g35
g24
tp1630
(dp1631
I0
I0
sI20
I0
sI-45
I0
sI-20
I0
sI45
I0
ss(g16
g4
g4
g24
tp1632
(dp1633
I0
I0
sI20
I0
sI-45
I0
sI-20
I0
sI45
I0
ss(g16
g35
g4
g46
tp1634
(dp1635
I0
I0
sI20
I0
sI-45
I0
sI-20
I0
sI45
I0
ss(g4
g35
g3
g46
tp1636
(dp1637
I0
I0
sI20
I0
sI-45
I0
sI-20
I0
sI45
I0
ss(g16
g3
g16
g24
tp1638
(dp1639
I0
g8
(g10
S'\xcb\x02\x8a\xa8\xf6c\xf2\xbf'
tRp1640
sI20
g8
(g10
S'\x1c\xc5z\xcc@\xcd\xe0\xbf'
tRp1641
sI-45
g8
(g10
S'\xd5\x0b\xb4\xb0T\xd6\xf3\xbf'
tRp1642
sI-20
g8
(g10
S'\x02\x06\xb9H\xa6\x80\xf3\xbf'
tRp1643
sI45
g8
(g10
S'qgw\xa5\xcc\xdc\xe5?'
tRp1644
ss(g2
g35
g2
g46
tp1645
(dp1646
I0
g8
(g10
S'7qo\rx\xe4\xea\xbf'
tRp1647
sI20
g8
(g10
S'\x87D\xa3\x88\x97\xdf\xc5?'
tRp1648
sI-45
g8
(g10
S'\xa4\x97\x14g\xf4\xdd\xe2\xbf'
tRp1649
sI-20
g8
(g10
S'D\xca\xac\xb6\x10#\xd7\xbf'
tRp1650
sI45
g8
(g10
S'\xc3\xca\x8c\rr9\xd2\xbf'
tRp1651
ss(g16
g3
g2
g90
tp1652
(dp1653
I0
g8
(g10
S'L\x0b\x10\x05&\x02\xdc\xbf'
tRp1654
sI20
g8
(g10
S';y\x8f\xed\xff[\xe0\xbf'
tRp1655
sI-45
I0
sI-20
g8
(g10
S'\xcbi_@\x97K\xe0\xbf'
tRp1656
sI45
g8
(g10
S'>\xc1}i\xb6\xcb\xec?'
tRp1657
ss(g16
g3
g16
g17
tp1658
(dp1659
I0
I0
sI20
I0
sI-45
I0
sI-20
I0
sI45
I0
ss(g16
g3
g3
g46
tp1660
(dp1661
I0
I0
sI20
g8
(g10
S'\xc3\xb7\x1f\xc3\xea\x02\xe3\xbf'
tRp1662
sI-45
I0
sI-20
g8
(g10
S'\xcf\xf4Q\x12\xb6C\xda\xbf'
tRp1663
sI45
I0
ss(g2
g3
g16
g46
tp1664
(dp1665
I0
I0
sI20
I0
sI-45
I0
sI-20
I0
sI45
I0
ss(g16
g2
g35
g17
tp1666
(dp1667
I0
I0
sI20
I0
sI-45
I0
sI-20
I0
sI45
I0
ss(g4
g4
g2
g17
tp1668
(dp1669
I0
I0
sI20
I0
sI-45
I0
sI-20
I0
sI45
I0
ss(g4
g2
g4
g46
tp1670
(dp1671
I0
I0
sI20
I0
sI-45
I0
sI-20
I0
sI45
I0
ss(g2
g16
g2
g32
tp1672
(dp1673
I0
I0
sI20
I0
sI-45
I0
sI-20
I0
sI45
I0
ss(g2
g35
g16
g46
tp1674
(dp1675
I0
I0
sI20
I0
sI-45
I0
sI-20
I0
sI45
I0
ss(g2
g2
g3
g5
tp1676
(dp1677
I0
g8
(g10
S'T\x11\xdd\xf4o\x01\x13\xc0'
tRp1678
sI20
g8
(g10
S'\xbd\x11\xa9\xae\xb6\x82\x13\xc0'
tRp1679
sI-45
g8
(g10
S';\x8fb\xfb\xf4\x01\x13\xc0'
tRp1680
sI-20
g8
(g10
S'\xcd\xac\xd4@\xea\xd5\x12\xc0'
tRp1681
sI45
g8
(g10
S'\x05(\x1c\n\x95\xb5\x12\xc0'
tRp1682
ss(g2
g16
g4
g5
tp1683
(dp1684
I0
g8
(g10
S'\xd5\xaf\xb3"L\xa8\x11\xc0'
tRp1685
sI20
g8
(g10
S'&\x15\xa5G_*\x12\xc0'
tRp1686
sI-45
g8
(g10
S'Gnym\xcer\x11\xc0'
tRp1687
sI-20
g8
(g10
S'"y\x86\x86}1\x11\xc0'
tRp1688
sI45
g8
(g10
S'H\xa2\xb7y\x06c\x12\xc0'
tRp1689
ss(g16
g4
g35
g90
tp1690
(dp1691
I0
I0
sI20
I0
sI-45
I0
sI-20
I0
sI45
I0
ss(g2
g16
g35
g90
tp1692
(dp1693
I0
I0
sI20
I0
sI-45
I0
sI-20
I0
sI45
I0
ss(g16
g4
g2
g102
tp1694
(dp1695
I0
I0
sI20
I0
sI-45
I0
sI-20
I0
sI45
I0
ss(g16
g3
g3
g90
tp1696
(dp1697
I0
g8
(g10
S'\xb2\xc8\xb7\x8be$\xde\xbf'
tRp1698
sI20
g8
(g10
S'\xb0\x8e\xc8\x80\x97\x02\xd9?'
tRp1699
sI-45
g8
(g10
S'\xfc\xf6\xe2&J\x9e\xf4?'
tRp1700
sI-20
I0
sI45
g8
(g10
S'\x8c\x8f\xb0\xc6\xcc\xbd\xcd?'
tRp1701
ss(g4
g3
g3
g46
tp1702
(dp1703
I0
I0
sI20
I0
sI-45
I0
sI-20
I0
sI45
I0
ss(g2
g2
g3
g24
tp1704
(dp1705
I0
g8
(g10
S'w\x88\xe5\x82\xf4\xf0\x0e\xc0'
tRp1706
sI20
g8
(g10
S'%d\x9d\xb5\xc7\x1d\x0f\xc0'
tRp1707
sI-45
g8
(g10
S'G\xc5\xbas\x94\xe8\x0e\xc0'
tRp1708
sI-20
g8
(g10
S'~\x9eg\x87\xac_\x0e\xc0'
tRp1709
sI45
g8
(g10
S'q5\x96z\x1c#\x0e\xc0'
tRp1710
ss(g4
g2
g35
g90
tp1711
(dp1712
I0
I0
sI20
I0
sI-45
I0
sI-20
I0
sI45
I0
ss(g16
g3
g16
g46
tp1713
(dp1714
I0
I0
sI20
I0
sI-45
I0
sI-20
I0
sI45
I0
ss(g4
g4
g16
g24
tp1715
(dp1716
I0
I0
sI20
I0
sI-45
I0
sI-20
I0
sI45
I0
ss(g2
g16
g3
g32
tp1717
(dp1718
I0
I0
sI20
I0
sI-45
I0
sI-20
I0
sI45
I0
ss(g2
g3
g16
g71
tp1719
(dp1720
I0
g8
(g10
S'\xc0\xd5M:\xe4\xe5\x0c\xc0'
tRp1721
sI20
g8
(g10
S'\x14\xc9\x95#\x82\xa2\x0c\xc0'
tRp1722
sI-45
g8
(g10
S'\xc3{\x0e\x8d*S\x0c\xc0'
tRp1723
sI-20
g8
(g10
S'f\x03\xec\xf7w\x03\r\xc0'
tRp1724
sI45
g8
(g10
S'6z\x92\xb2\x87<\r\xc0'
tRp1725
ss(g16
g4
g35
g38
tp1726
(dp1727
I0
I0
sI20
g8
(g10
S'T\x90\x9b\xcfKE\xd1\xbf'
tRp1728
sI-45
I0
sI-20
I0
sI45
I0
ss(g2
g35
g2
g71
tp1729
(dp1730
I0
g8
(g10
S'<\xb5\xc6\xb9\x80\x14\x12\xc0'
tRp1731
sI20
g8
(g10
S'\xd6\x92\x00\xb6<4\x11\xc0'
tRp1732
sI-45
g8
(g10
S'\xeb\x1f\x05\xa3\x1e\xb5\x12\xc0'
tRp1733
sI-20
g8
(g10
S'\xcf\x81t7\xb4\xda\x11\xc0'
tRp1734
sI45
g8
(g10
S'31$\x0fm\xb9\x11\xc0'
tRp1735
ss(g2
g3
g4
g90
tp1736
(dp1737
I0
g8
(g10
S'\\\x0f\xcdY\xbcU\xe9\xbf'
tRp1738
sI20
I0
sI-45
I0
sI-20
I0
sI45
I0
ss(g2
g35
g16
g90
tp1739
(dp1740
I0
I0
sI20
I0
sI-45
I0
sI-20
I0
sI45
I0
ss(g2
g2
g4
g32
tp1741
(dp1742
I0
g8
(g10
S'\xbf\xf7z\x1c(w\xd2\xbf'
tRp1743
sI20
g8
(g10
S'%\t\xfdl\xe2\x8d\xe5\xbf'
tRp1744
sI-45
I0
sI-20
g8
(g10
S'\x08\xa4\x91\x84\x12X\xef?'
tRp1745
sI45
g8
(g10
S'"\xda\xe4\x1f \xde\xd6\xbf'
tRp1746
ss(g4
g16
g4
g102
tp1747
(dp1748
I0
I0
sI20
I0
sI-45
I0
sI-20
I0
sI45
I0
ss(g16
g4
g35
g46
tp1749
(dp1750
I0
I0
sI20
I0
sI-45
I0
sI-20
I0
sI45
I0
ss(g2
g16
g3
g102
tp1751
(dp1752
I0
I0
sI20
I0
sI-45
I0
sI-20
I0
sI45
I0
ss(g16
g3
g4
g71
tp1753
(dp1754
I0
g8
(g10
S'\xdc?\x8e<h\xe3\x08\xc0'
tRp1755
sI20
g8
(g10
S'\xc4\xb8Xr\xe0\xc1\x07\xc0'
tRp1756
sI-45
g8
(g10
S'>\xa9f\x1c\xe6-\t\xc0'
tRp1757
sI-20
g8
(g10
S'\xfa\x05\x97<\x011\x08\xc0'
tRp1758
sI45
g8
(g10
S'\x19\xeeG"A\xfe\x03\xc0'
tRp1759
ss(g16
g16
g35
g102
tp1760
(dp1761
I0
I0
sI20
I0
sI-45
I0
sI-20
I0
sI45
I0
ss(g4
g4
g35
g38
tp1762
(dp1763
I0
I0
sI20
I0
sI-45
I0
sI-20
I0
sI45
I0
ss(g4
g2
g35
g46
tp1764
(dp1765
I0
I0
sI20
I0
sI-45
I0
sI-20
I0
sI45
I0
ss(g16
g2
g3
g5
tp1766
(dp1767
I0
g8
(g10
S'\x13\xe0\xa8+\x85\x03\x04\xc0'
tRp1768
sI20
g8
(g10
S'z\x81\xb0\xe6\x00"\x03\xc0'
tRp1769
sI-45
g8
(g10
S'\xa9\x95Hf\xbb\xb1\x02\xc0'
tRp1770
sI-20
g8
(g10
S'#\xa5\x98\x81<\x83\x03\xc0'
tRp1771
sI45
g8
(g10
S'\x9e^9\xbce4\x03\xc0'
tRp1772
ss(g4
g3
g2
g102
tp1773
(dp1774
I0
I0
sI20
I0
sI-45
I0
sI-20
I0
sI45
I0
ss(g2
g2
g16
g90
tp1775
(dp1776
I0
I0
sI20
I0
sI-45
I0
sI-20
I0
sI45
I0
ss(g2
g16
g16
g5
tp1777
(dp1778
I0
g8
(g10
S'\xeb\xc1\x9e\x00M5\x12\xc0'
tRp1779
sI20
g8
(g10
S'\x0c\xa4\xc1\x8a4|\x11\xc0'
tRp1780
sI-45
g8
(g10
S'\xc2\xa9S\xa6\x1d\xd0\x0c\xc0'
tRp1781
sI-20
g8
(g10
S'\xe9\x1b\x0b\xa8X3\x12\xc0'
tRp1782
sI45
g8
(g10
S'\\\xa7\n\x13\xaak\x11\xc0'
tRp1783
ss(g4
g2
g16
g5
tp1784
(dp1785
I0
I0
sI20
I0
sI-45
I0
sI-20
I0
sI45
I0
ss(g4
g16
g3
g38
tp1786
(dp1787
I0
I0
sI20
I0
sI-45
I0
sI-20
I0
sI45
I0
ss(g4
g2
g16
g90
tp1788
(dp1789
I0
I0
sI20
I0
sI-45
I0
sI-20
I0
sI45
I0
ss(g2
g35
g35
g46
tp1790
(dp1791
I0
I0
sI20
I0
sI-45
I0
sI-20
I0
sI45
I0
ss(g2
g16
g4
g102
tp1792
(dp1793
I0
I0
sI20
I0
sI-45
I0
sI-20
I0
sI45
I0
ss(g2
g4
g3
g32
tp1794
(dp1795
I0
g8
(g10
S'l\x8f\xa2Eu\xc9\xe3?'
tRp1796
sI20
g8
(g10
S'\xdbj\xf7\x9e\xf3x\xf7?'
tRp1797
sI-45
g8
(g10
S'Hfs\xca\x19\x95\xf2?'
tRp1798
sI-20
g8
(g10
S'\xec-Np\x02\x9b\xf4?'
tRp1799
sI45
g8
(g10
S'\x98\xb3\xbfI\x8b\x7f\xe8?'
tRp1800
ss(g2
g16
g16
g90
tp1801
(dp1802
I0
I0
sI20
I0
sI-45
I0
sI-20
I0
sI45
I0
ss(g2
g3
g2
g5
tp1803
(dp1804
I0
g8
(g10
S',\xdd\x0f\x07\xe1j\x13\xc0'
tRp1805
sI20
g8
(g10
S'\xba\xbb\x08D\xadD\x11\xc0'
tRp1806
sI-45
g8
(g10
S'\xf5S\xa6N\x10\xd8\x13\xc0'
tRp1807
sI-20
g8
(g10
S'iXWSBY\x11\xc0'
tRp1808
sI45
g8
(g10
S'\xd8#\x16\xb8\x8f \x13\xc0'
tRp1809
ss(g4
g16
g2
g24
tp1810
(dp1811
I0
I0
sI20
I0
sI-45
I0
sI-20
I0
sI45
I0
ss(g4
g16
g35
g71
tp1812
(dp1813
I0
I0
sI20
I0
sI-45
I0
sI-20
I0
sI45
I0
ss(g16
g3
g16
g5
tp1814
(dp1815
I0
g8
(g10
S'\x7f\xf7\xe8>\xf5\t\x10\xc0'
tRp1816
sI20
g8
(g10
S"\x83\x8b\x82'1A\x0b\xc0"
tRp1817
sI-45
g8
(g10
S'y\r\xbdq\xd3\xd5\x10\xc0'
tRp1818
sI-20
g8
(g10
S'~),\xf8\x06C\x0f\xc0'
tRp1819
sI45
g8
(g10
S'Lt\x7f7\xf5\xbf\x0e\xc0'
tRp1820
ss(g16
g2
g4
g32
tp1821
(dp1822
I0
I0
sI20
I0
sI-45
I0
sI-20
I0
sI45
I0
ss(g4
g2
g16
g102
tp1823
(dp1824
I0
I0
sI20
I0
sI-45
I0
sI-20
I0
sI45
I0
ss(g16
g16
g2
g5
tp1825
(dp1826
I0
I0
sI20
I0
sI-45
I0
sI-20
I0
sI45
I0
ss(g16
g35
g35
g24
tp1827
(dp1828
I0
I0
sI20
I0
sI-45
I0
sI-20
I0
sI45
I0
ss(g4
g16
g3
g46
tp1829
(dp1830
I0
I0
sI20
I0
sI-45
I0
sI-20
I0
sI45
I0
ss(g16
g35
g3
g24
tp1831
(dp1832
I0
g8
(g10
S'^?\x81\x97\x10\x13\xf1\xbf'
tRp1833
sI20
g8
(g10
S'\x97\xc3^\xbcj\t\xf7\xbf'
tRp1834
sI-45
g8
(g10
S'\xfa\xd0\xf8Wb\x0e\xf2\xbf'
tRp1835
sI-20
g8
(g10
S'3\x81J\xef\x99q\xf3\xbf'
tRp1836
sI45
g8
(g10
S'ZQ\xa6\xe7Er\xf2\xbf'
tRp1837
ss(g2
g2
g4
g17
tp1838
(dp1839
I0
I0
sI20
I0
sI-45
I0
sI-20
I0
sI45
g8
(g10
S'6\xfe\xa1f\x8c\xa4\xe5?'
tRp1840
ss(g16
g4
g3
g71
tp1841
(dp1842
I0
g8
(g10
S'\xb2E\xdd\x93ZJ\x04\xc0'
tRp1843
sI20
g8
(g10
S'Q\xd1\xe1\xfd\xc6W\x08\xc0'
tRp1844
sI-45
g8
(g10
S'\xf8\xb5t\x8e\x9e\xa1\x02\xc0'
tRp1845
sI-20
g8
(g10
S'\x1d\xeb\xacM\x1d|\x07\xc0'
tRp1846
sI45
g8
(g10
S'B\x8b\xbc\x13%\x98\x07\xc0'
tRp1847
ss(g4
g16
g16
g102
tp1848
(dp1849
I0
I0
sI20
I0
sI-45
I0
sI-20
I0
sI45
I0
ss(g2
g3
g35
g71
tp1850
(dp1851
I0
g8
(g10
S'\x90\x15\x18\xa0\xe9\xeb\x04\xc0'
tRp1852
sI20
g8
(g10
S'&L\x9dkac\x01\xc0'
tRp1853
sI-45
g8
(g10
S'{\x84\xa3\xbb\xa6\xc7\x01\xc0'
tRp1854
sI-20
g8
(g10
S'@Q\xb7f\xecn\x03\xc0'
tRp1855
sI45
g8
(g10
S'n\xb0tw\x87_\x05\xc0'
tRp1856
ss(g4
g4
g16
g5
tp1857
(dp1858
I0
I0
sI20
I0
sI-45
I0
sI-20
I0
sI45
I0
ss(g2
g16
g4
g32
tp1859
(dp1860
I0
I0
sI20
I0
sI-45
I0
sI-20
I0
sI45
I0
ss(g4
g2
g3
g32
tp1861
(dp1862
I0
I0
sI20
I0
sI-45
I0
sI-20
I0
sI45
I0
ss(g4
g4
g3
g5
tp1863
(dp1864
I0
I0
sI20
I0
sI-45
I0
sI-20
I0
sI45
I0
ss(g2
g4
g16
g71
tp1865
(dp1866
I0
g8
(g10
S"\x9f\xad\xdf\xa8'\x13\x11\xc0"
tRp1867
sI20
g8
(g10
S'I\xeeZ<^\xc6\x10\xc0'
tRp1868
sI-45
g8
(g10
S'\x89\x17\x8b\x8f/\xcd\x10\xc0'
tRp1869
sI-20
g8
(g10
S'\x8d\x8d\xae5\x10\xbd\x10\xc0'
tRp1870
sI45
g8
(g10
S'\x10\xd5\xb7\x80\xfb\xfb\x10\xc0'
tRp1871
ss(g16
g2
g2
g90
tp1872
(dp1873
I0
I0
sI20
I0
sI-45
I0
sI-20
I0
sI45
I0
ss(g16
g16
g4
g38
tp1874
(dp1875
I0
g8
(g10
S'\xd2\xf2\x18\xdb9\x0e\xe8\xbf'
tRp1876
sI20
g8
(g10
S'\xad\xe3\x98\x90\x8fK\xe7\xbf'
tRp1877
sI-45
g8
(g10
S' [$\xc53\xd7\xf5\xbf'
tRp1878
sI-20
g8
(g10
S'[d\x05&8\x0f\xf0\xbf'
tRp1879
sI45
g8
(g10
S'\x18ExT\xdd\xee\xe8\xbf'
tRp1880
ss(g16
g3
g2
g46
tp1881
(dp1882
I0
g8
(g10
S"\xca\x83\x8fr\x16'\xf6\xbf"
tRp1883
sI20
g8
(g10
S'rjcigd\xf1\xbf'
tRp1884
sI-45
g8
(g10
S'd\xa2\x17\xd1Y\x95\xf5\xbf'
tRp1885
sI-20
g8
(g10
S'\xc2k|\xfd\x0c\x1b\xf8\xbf'
tRp1886
sI45
g8
(g10
S'P\xad\t,-\xa7\xf1\xbf'
tRp1887
ss(g16
g3
g2
g17
tp1888
(dp1889
I0
I0
sI20
I0
sI-45
I0
sI-20
I0
sI45
I0
ss(g16
g16
g4
g5
tp1890
(dp1891
I0
g8
(g10
S'\x02N\xf5\xcc\xddM\xe4\xbf'
tRp1892
sI20
g8
(g10
S'`C\x16\xae\xf8\x80\xed\xbf'
tRp1893
sI-45
I0
sI-20
I0
sI45
g8
(g10
S'\x95\x16\xc1"iJ\xc9\xbf'
tRp1894
ss(g4
g16
g3
g102
tp1895
(dp1896
I0
I0
sI20
I0
sI-45
I0
sI-20
I0
sI45
I0
ss(g2
g35
g3
g32
tp1897
(dp1898
I0
I0
sI20
g8
(g10
S'\xe6\x9di\x8d,\xfb\xd7\xbf'
tRp1899
sI-45
I0
sI-20
I0
sI45
I0
ss(g16
g3
g16
g38
tp1900
(dp1901
I0
g8
(g10
S'$u\xfe\xf9\xc1\xc3\n\xc0'
tRp1902
sI20
g8
(g10
S'\xc6;?\x15\xa6\xce\x04\xc0'
tRp1903
sI-45
g8
(g10
S'\xedN\x1b\x9c\xdf3\x08\xc0'
tRp1904
sI-20
g8
(g10
S'Br)y\xdca\x06\xc0'
tRp1905
sI45
g8
(g10
S'O\x8e:\xd4Q\xc1\xe2\xbf'
tRp1906
ss(g4
g4
g4
g5
tp1907
(dp1908
I0
I0
sI20
I0
sI-45
I0
sI-20
I0
sI45
I0
ss(g2
g4
g35
g102
tp1909
(dp1910
I0
I0
sI20
I0
sI-45
I0
sI-20
I0
sI45
I0
ss(g4
g35
g16
g24
tp1911
(dp1912
I0
I0
sI20
I0
sI-45
I0
sI-20
I0
sI45
I0
ss(g2
g2
g35
g5
tp1913
(dp1914
I0
g8
(g10
S'\x92O\xebL\xe2 \x12\xc0'
tRp1915
sI20
g8
(g10
S'r\x12\x8a\x97\xd4\x08\x12\xc0'
tRp1916
sI-45
g8
(g10
S'\xb0#\xcb\xd3%!\x10\xc0'
tRp1917
sI-20
g8
(g10
S'\x81\x94?z\xf3\xd6\x10\xc0'
tRp1918
sI45
g8
(g10
S'\x0b\x1axhEh\x12\xc0'
tRp1919
ss(g2
g3
g4
g46
tp1920
(dp1921
I0
g8
(g10
S'b\x14\x02:\x84f\xd9?'
tRp1922
sI20
g8
(g10
S'\xe243&0\xd4\xe3\xbf'
tRp1923
sI-45
g8
(g10
S'\xd2\xa1\x89$\xf4\xc5\x04@'
tRp1924
sI-20
g8
(g10
S'$V\x8avv\x9a\xd5?'
tRp1925
sI45
g8
(g10
S'|\xd5\x91X\xfb\xc9\xf0?'
tRp1926
ss(g2
g16
g2
g71
tp1927
(dp1928
I0
g8
(g10
S'\x02w\xc8\x89/\xbd\xf7\xbf'
tRp1929
sI20
g8
(g10
S'\nC<\xed|\t\xf7\xbf'
tRp1930
sI-45
g8
(g10
S'\x0c\xf8\xe9\x9b\xd9\x0c\x01\xc0'
tRp1931
sI-20
g8
(g10
S'\xc5\xb3\x9duEA\xf5\xbf'
tRp1932
sI45
g8
(g10
S'\x02\xc6\xfa-O\x96\xfa\xbf'
tRp1933
ss(g2
g4
g2
g24
tp1934
(dp1935
I0
I0
sI20
I0
sI-45
g8
(g10
S'n\xc1d\x95\xaf\x85\xd3\xbf'
tRp1936
sI-20
g8
(g10
S'\xd3;\xbd\xbd\\\xcd\xe2\xbf'
tRp1937
sI45
I0
ss(g2
g3
g2
g102
tp1938
(dp1939
I0
I0
sI20
I0
sI-45
I0
sI-20
I0
sI45
I0
ss(g4
g35
g3
g24
tp1940
(dp1941
I0
I0
sI20
I0
sI-45
I0
sI-20
I0
sI45
I0
ss(g4
g16
g2
g5
tp1942
(dp1943
I0
I0
sI20
I0
sI-45
I0
sI-20
I0
sI45
I0
ss(g16
g16
g16
g17
tp1944
(dp1945
I0
I0
sI20
I0
sI-45
I0
sI-20
I0
sI45
I0
ss(g4
g16
g16
g90
tp1946
(dp1947
I0
I0
sI20
I0
sI-45
I0
sI-20
I0
sI45
I0
ss(g16
g3
g16
g32
tp1948
(dp1949
I0
I0
sI20
I0
sI-45
I0
sI-20
I0
sI45
I0
ss(g4
g3
g35
g38
tp1950
(dp1951
I0
I0
sI20
I0
sI-45
I0
sI-20
I0
sI45
I0
ss(g2
g2
g3
g90
tp1952
(dp1953
I0
I0
sI20
I0
sI-45
I0
sI-20
I0
sI45
I0
ss(g4
g35
g3
g102
tp1954
(dp1955
I0
I0
sI20
I0
sI-45
I0
sI-20
I0
sI45
I0
ss(g4
g35
g16
g46
tp1956
(dp1957
I0
I0
sI20
I0
sI-45
I0
sI-20
I0
sI45
I0
ss(g4
g4
g4
g46
tp1958
(dp1959
I0
I0
sI20
I0
sI-45
I0
sI-20
I0
sI45
I0
ss(g4
g4
g2
g5
tp1960
(dp1961
I0
I0
sI20
I0
sI-45
I0
sI-20
I0
sI45
I0
ss(g4
g3
g3
g32
tp1962
(dp1963
I0
I0
sI20
I0
sI-45
I0
sI-20
I0
sI45
I0
ss(g4
g35
g16
g38
tp1964
(dp1965
I0
I0
sI20
I0
sI-45
I0
sI-20
I0
sI45
I0
ss(g16
g4
g35
g102
tp1966
(dp1967
I0
I0
sI20
I0
sI-45
I0
sI-20
I0
sI45
I0
ss(g4
g16
g3
g5
tp1968
(dp1969
I0
I0
sI20
I0
sI-45
I0
sI-20
I0
sI45
I0
ss(g16
g3
g16
g102
tp1970
(dp1971
I0
I0
sI20
I0
sI-45
I0
sI-20
I0
sI45
I0
ss(g4
g4
g16
g46
tp1972
(dp1973
I0
I0
sI20
I0
sI-45
I0
sI-20
I0
sI45
I0
ss(g16
g16
g16
g5
tp1974
(dp1975
I0
g8
(g10
S'A\x1d\x11M&{\xfd\xbf'
tRp1976
sI20
g8
(g10
S'\xdc<\xfa\x95\x90@\x01\xc0'
tRp1977
sI-45
g8
(g10
S'\xe3\x185\x12\xc0\xee\x00\xc0'
tRp1978
sI-20
g8
(g10
S'\x08\xd3\xe6\xd8\xa5\xcd\xfd\xbf'
tRp1979
sI45
g8
(g10
S'\xe9\x1d\xaa\x96\x1d0\xff\xbf'
tRp1980
ss(g4
g35
g16
g90
tp1981
(dp1982
I0
I0
sI20
I0
sI-45
I0
sI-20
I0
sI45
I0
ss(g16
g16
g3
g71
tp1983
(dp1984
I0
g8
(g10
S'\x0eA\n\xfc\xa2?\t\xc0'
tRp1985
sI20
g8
(g10
S'YmX\xf2q\x18\x06\xc0'
tRp1986
sI-45
g8
(g10
S'\xfc\x08\x8ak\x8d\xa3\x06\xc0'
tRp1987
sI-20
g8
(g10
S'\xd6re\xb5,\xae\x03\xc0'
tRp1988
sI45
g8
(g10
S"\xc6\x0e\xb7\xae\xda'\x07\xc0"
tRp1989
ss(g2
g2
g35
g24
tp1990
(dp1991
I0
I0
sI20
g8
(g10
S'd:2&\x8f\x91\xcb\xbf'
tRp1992
sI-45
I0
sI-20
I0
sI45
g8
(g10
S'\x1a\xb0\xffi\xe9\x95\xe4\xbf'
tRp1993
ss(g2
g35
g35
g102
tp1994
(dp1995
I0
I0
sI20
I0
sI-45
I0
sI-20
I0
sI45
I0
ss(g4
g4
g4
g24
tp1996
(dp1997
I0
I0
sI20
I0
sI-45
I0
sI-20
I0
sI45
I0
ss(g4
g35
g35
g5
tp1998
(dp1999
I0
I0
sI20
I0
sI-45
I0
sI-20
I0
sI45
I0
ss(g4
g16
g3
g90
tp2000
(dp2001
I0
I0
sI20
I0
sI-45
I0
sI-20
I0
sI45
I0
ss(g16
g16
g35
g46
tp2002
(dp2003
I0
I0
sI20
I0
sI-45
I0
sI-20
I0
sI45
I0
ss(g4
g3
g3
g102
tp2004
(dp2005
I0
I0
sI20
I0
sI-45
I0
sI-20
I0
sI45
I0
ss(g2
g2
g16
g5
tp2006
(dp2007
I0
g8
(g10
S'\xf2lhW\xb8\xd5\x10\xc0'
tRp2008
sI20
g8
(g10
S'\xcb\x8f\xccm\xafi\x11\xc0'
tRp2009
sI-45
g8
(g10
S'1\x02\xa9C\x8c/\x11\xc0'
tRp2010
sI-20
g8
(g10
S'\\-|\xf9\xbb.\x11\xc0'
tRp2011
sI45
g8
(g10
S'\xbd\x16r\xc0q9\x11\xc0'
tRp2012
ss(g16
g16
g3
g38
tp2013
(dp2014
I0
g8
(g10
S'C\xe0!\xd6\x18J\t\xc0'
tRp2015
sI20
g8
(g10
S'\x00w\xda\x1e\x08P\t\xc0'
tRp2016
sI-45
g8
(g10
S'\xf8\xb1\xfb\xae\xf6\x9f\x08\xc0'
tRp2017
sI-20
g8
(g10
S's\x13\x1c0\xe6\xd8\t\xc0'
tRp2018
sI45
g8
(g10
S'\xecu\x89\xa2\xf6\x91\x06\xc0'
tRp2019
ss(g2
g35
g3
g17
tp2020
(dp2021
I0
I0
sI20
I0
sI-45
I0
sI-20
F1
sI45
I0
ss(g16
g3
g3
g5
tp2022
(dp2023
I0
g8
(g10
S'\x8cL\xdf]\xda\x9b\x08\xc0'
tRp2024
sI20
g8
(g10
S' ux\xec\x03 \x08\xc0'
tRp2025
sI-45
g8
(g10
S'\x9f\x1a\x04\xfa\xae+\x08\xc0'
tRp2026
sI-20
g8
(g10
S's\xf9\xba\xb2F\xda\n\xc0'
tRp2027
sI45
g8
(g10
S'4N\xaa\x00\xa3~\x08\xc0'
tRp2028
ss(g2
g4
g16
g38
tp2029
(dp2030
I0
g8
(g10
S"K\xa14'&\xf5\n\xc0"
tRp2031
sI20
g8
(g10
S'~Z\x12\xd8\n\xfc\n\xc0'
tRp2032
sI-45
g8
(g10
S'\xd3\nT.y\xc9\x0b\xc0'
tRp2033
sI-20
g8
(g10
S'\x9a`\x99\xb9\xdbc\r\xc0'
tRp2034
sI45
g8
(g10
S'Z\xdf\x00!q\xf0\x05\xc0'
tRp2035
ss(g4
g16
g2
g102
tp2036
(dp2037
I0
I0
sI20
I0
sI-45
I0
sI-20
I0
sI45
I0
ss(g4
g3
g35
g71
tp2038
(dp2039
I0
I0
sI20
I0
sI-45
I0
sI-20
I0
sI45
I0
ss(g16
g16
g2
g32
tp2040
(dp2041
I0
I0
sI20
I0
sI-45
I0
sI-20
I0
sI45
I0
ss(g16
g16
g4
g71
tp2042
(dp2043
I0
g8
(g10
S';\x00\xdf\xa2\xe3?\xf4\xbf'
tRp2044
sI20
g8
(g10
S'\x8ch\x90M\xc1\xd2\xdf\xbf'
tRp2045
sI-45
g8
(g10
S'v\x13\x08\xa3v\x85\xf3\xbf'
tRp2046
sI-20
g8
(g10
S'\x87kw\x0c*\xd2\xed\xbf'
tRp2047
sI45
g8
(g10
S' \xd4"\xf2\xd5p\xf0\xbf'
tRp2048
ss(g4
g3
g2
g46
tp2049
(dp2050
I0
I0
sI20
I0
sI-45
I0
sI-20
I0
sI45
I0
ss(g16
g3
g2
g32
tp2051
(dp2052
I0
I0
sI20
I0
sI-45
I0
sI-20
I0
sI45
I0
ss(g16
g4
g16
g5
tp2053
(dp2054
I0
I0
sI20
I0
sI-45
I0
sI-20
I0
sI45
g8
(g10
S'\xf2k\xf7\xf6\x0fd\xe9\xbf'
tRp2055
ss(g4
g4
g16
g38
tp2056
(dp2057
I0
I0
sI20
I0
sI-45
I0
sI-20
I0
sI45
I0
ss(g2
g4
g3
g71
tp2058
(dp2059
I0
g8
(g10
S'/?d\xbex&\x12\xc0'
tRp2060
sI20
g8
(g10
S'\x013\xbc\xc99T\x12\xc0'
tRp2061
sI-45
g8
(g10
S'\xfdh\xdaf\x0f\xa5\x12\xc0'
tRp2062
sI-20
g8
(g10
S'Rw\x01\x85[z\x12\xc0'
tRp2063
sI45
g8
(g10
S'O\xa2a@\xfep\x12\xc0'
tRp2064
ss(g2
g16
g4
g17
tp2065
(dp2066
I0
I0
sI20
g8
(g10
S'8\x1cu(2\xf9\xe7?'
tRp2067
sI-45
I0
sI-20
I0
sI45
F1
ss(g4
g3
g2
g38
tp2068
(dp2069
I0
I0
sI20
I0
sI-45
I0
sI-20
I0
sI45
I0
ss(g2
g4
g35
g38
tp2070
(dp2071
I0
g8
(g10
S'\x12\x9b\xb6\xf9\xb57\x11\xc0'
tRp2072
sI20
g8
(g10
S'\x11\xb3\xd3\xf6J\xe2\x10\xc0'
tRp2073
sI-45
g8
(g10
S'\x03fZ@B\xc0\x02\xc0'
tRp2074
sI-20
g8
(g10
S'\x130)F0\xe5\x10\xc0'
tRp2075
sI45
g8
(g10
S'a!\x82\xec\xb2\xc0\x10\xc0'
tRp2076
ss(g2
g2
g16
g17
tp2077
(dp2078
I0
I0
sI20
I0
sI-45
I0
sI-20
I0
sI45
I0
ss(g4
g2
g35
g32
tp2079
(dp2080
I0
I0
sI20
I0
sI-45
I0
sI-20
I0
sI45
I0
ss(g2
g35
g4
g90
tp2081
(dp2082
I0
I0
sI20
I0
sI-45
I0
sI-20
I0
sI45
I0
ss(g2
g3
g35
g32
tp2083
(dp2084
I0
I0
sI20
I0
sI-45
I0
sI-20
I0
sI45
I0
ss(g4
g16
g35
g32
tp2085
(dp2086
I0
I0
sI20
I0
sI-45
I0
sI-20
I0
sI45
I0
ss(g2
g4
g4
g71
tp2087
(dp2088
I0
g8
(g10
S'\xae\x9b\x17}\xd9\xbb\x10\xc0'
tRp2089
sI20
g8
(g10
S'=\xa3\xfds\xfd\x81\x10\xc0'
tRp2090
sI-45
g8
(g10
S'h|\xab\x88\xdf\xe0\x10\xc0'
tRp2091
sI-20
g8
(g10
S'3\xef\x1b{\xe2\x8f\x10\xc0'
tRp2092
sI45
g8
(g10
S'\xe8\x05\xd5\xec/@\x10\xc0'
tRp2093
ss(g4
g3
g16
g46
tp2094
(dp2095
I0
I0
sI20
I0
sI-45
I0
sI-20
I0
sI45
I0
ss(g2
g35
g4
g38
tp2096
(dp2097
I0
g8
(g10
S'\x84\xf4\x17\x02\xd3{\n\xc0'
tRp2098
sI20
g8
(g10
S'\x9f\x1aj\\v\xdb\t\xc0'
tRp2099
sI-45
g8
(g10
S'\xd2\xca\x8d\xd4\xda\x03\t\xc0'
tRp2100
sI-20
g8
(g10
S'\xf1\x90\xf3\xb6\xfb\x02\t\xc0'
tRp2101
sI45
g8
(g10
S'\xfa\x00\xef-w~\x0b\xc0'
tRp2102
ss(g16
g2
g16
g71
tp2103
(dp2104
I0
g8
(g10
S'\xfa\x9aM\x99/x\xe8\xbf'
tRp2105
sI20
I0
sI-45
g8
(g10
S'`\xc5\x0e\x19\xe4k\xc9\xbf'
tRp2106
sI-20
g8
(g10
S'\x93\xa4\xf0`\x1co\xd1\xbf'
tRp2107
sI45
I0
ss(g16
g16
g16
g90
tp2108
(dp2109
I0
I0
sI20
I0
sI-45
I0
sI-20
I0
sI45
I0
ss(g2
g4
g4
g38
tp2110
(dp2111
I0
g8
(g10
S'\xae\xb9\xf7$\xff\xf9\x0e\xc0'
tRp2112
sI20
g8
(g10
S'\xa8\x00o6R\xd6\r\xc0'
tRp2113
sI-45
g8
(g10
S'\xc7\x8f+(\x95\xd9\x0e\xc0'
tRp2114
sI-20
g8
(g10
S'\xbf\xdf=\xbf\xa4\xdc\x0b\xc0'
tRp2115
sI45
g8
(g10
S'\x03\xff\xdc\xd9%\xe7\r\xc0'
tRp2116
ss(g2
g35
g4
g5
tp2117
(dp2118
I0
g8
(g10
S',\xef\x12([\x15\x11\xc0'
tRp2119
sI20
g8
(g10
S'4\xfd\xf1/\xd2\x10\x11\xc0'
tRp2120
sI-45
g8
(g10
S'\xa6\x0f\x89\x16K\x12\x11\xc0'
tRp2121
sI-20
g8
(g10
S')FU\xee\xec\xd7\x10\xc0'
tRp2122
sI45
g8
(g10
S"\xe0pLqF'\x11\xc0"
tRp2123
ss(g4
g3
g4
g24
tp2124
(dp2125
I0
I0
sI20
I0
sI-45
I0
sI-20
I0
sI45
I0
ss(g2
g35
g4
g71
tp2126
(dp2127
I0
g8
(g10
S'\x97\xb1\x9f\xfbE\xf5\x10\xc0'
tRp2128
sI20
g8
(g10
S'\xf1\xe0\x96\xb5\x80.\x11\xc0'
tRp2129
sI-45
g8
(g10
S'E\x9a\xf4\xc4N\x03\x11\xc0'
tRp2130
sI-20
g8
(g10
S'\x90L\x9b\xf3D?\x11\xc0'
tRp2131
sI45
g8
(g10
S'cl\xd5\xfbP\xb2\x0c\xc0'
tRp2132
ss(g4
g4
g3
g32
tp2133
(dp2134
I0
I0
sI20
I0
sI-45
I0
sI-20
I0
sI45
I0
ss(g16
g4
g3
g24
tp2135
(dp2136
I0
g8
(g10
S'D1x\xb2\xd5\xb6\xe3\xbf'
tRp2137
sI20
g8
(g10
S'r\x9c\xf8\xe0sU\xe9\xbf'
tRp2138
sI-45
g8
(g10
S'\xd5\xc7\x08}\x82\xc1\xdc\xbf'
tRp2139
sI-20
g8
(g10
S'\xd3\xc9\x82\xc3_\xcb\xd5\xbf'
tRp2140
sI45
g8
(g10
S'\xb3=*\x8b\x10k\xb8?'
tRp2141
ss(g4
g3
g16
g90
tp2142
(dp2143
I0
I0
sI20
I0
sI-45
I0
sI-20
I0
sI45
I0
ss(g4
g3
g16
g24
tp2144
(dp2145
I0
I0
sI20
I0
sI-45
I0
sI-20
I0
sI45
I0
ss(g16
g2
g3
g102
tp2146
(dp2147
I0
I0
sI20
I0
sI-45
I0
sI-20
I0
sI45
I0
ss(g2
g3
g4
g17
tp2148
(dp2149
I0
g8
(g10
S'\x04\\\xf8\xb9\xd0\x86\xfe?'
tRp2150
sI20
g8
(g10
S'\xb0<\x1c!{\x06\xf8?'
tRp2151
sI-45
g8
(g10
S'9NIc\x0e\xb1\x07@'
tRp2152
sI-20
g8
(g10
S'\x8a"!l\xe7\xc2\xc9?'
tRp2153
sI45
g8
(g10
S'f\xa7\n<f\xb7\x05@'
tRp2154
ss(g2
g16
g35
g102
tp2155
(dp2156
I0
I0
sI20
I0
sI-45
I0
sI-20
I0
sI45
I0
ss(g2
g4
g4
g46
tp2157
(dp2158
I0
g8
(g10
S'\xb2:\x149\x8c\xea\xcb\xbf'
tRp2159
sI20
g8
(g10
S'\x1a*Q\xc4.F\xd2\xbf'
tRp2160
sI-45
g8
(g10
S'g\xe6~\x18\x02\x9f \xbf'
tRp2161
sI-20
g8
(g10
S'\x84\x95[h\x13{\xf8\xbf'
tRp2162
sI45
g8
(g10
S'\x86\xbc\xc7R\xfb\xc4\xe3\xbf'
tRp2163
ss(g2
g3
g4
g24
tp2164
(dp2165
I0
g8
(g10
S'\xba\xbb\xb8\xa0\xb06\x0c\xc0'
tRp2166
sI20
g8
(g10
S'\xc4|Cy\xd7\xfb\x0b\xc0'
tRp2167
sI-45
g8
(g10
S'*\x88\xe1\xbceN\x0c\xc0'
tRp2168
sI-20
g8
(g10
S'\xb5UF\xb5\xab\x16\x0c\xc0'
tRp2169
sI45
g8
(g10
S'\x86\xe8\xa5\xe1\x89\xdc\t\xc0'
tRp2170
ss(g2
g4
g3
g90
tp2171
(dp2172
I0
I0
sI20
I0
sI-45
I0
sI-20
I0
sI45
I0
ss(g16
g4
g16
g38
tp2173
(dp2174
I0
g8
(g10
S'5\xee\xb8\x036\xfa\xde\xbf'
tRp2175
sI20
g8
(g10
S'5\xc5s\x14\xd4\xa0\xd8\xbf'
tRp2176
sI-45
g8
(g10
S'\xffm\xc9\xff\x1d$\xe2\xbf'
tRp2177
sI-20
g8
(g10
S'\x17!\x07\x97\x88\xf2\xe5\xbf'
tRp2178
sI45
g8
(g10
S'O\xef\x05\x89#\x04\xc9\xbf'
tRp2179
ss(g16
g2
g35
g71
tp2180
(dp2181
I0
I0
sI20
I0
sI-45
I0
sI-20
I0
sI45
I0
ss(g4
g4
g4
g38
tp2182
(dp2183
I0
I0
sI20
I0
sI-45
I0
sI-20
I0
sI45
I0
ss(g2
g3
g3
g32
tp2184
(dp2185
I0
I0
sI20
I0
sI-45
I0
sI-20
I0
sI45
I0
ss(g2
g3
g2
g32
tp2186
(dp2187
I0
I0
sI20
I0
sI-45
I0
sI-20
I0
sI45
I0
ss(g2
g3
g3
g5
tp2188
(dp2189
I0
g8
(g10
S'\x87bR\rTd\x13\xc0'
tRp2190
sI20
g8
(g10
S'\x0e.zc\xd2\xf3\x12\xc0'
tRp2191
sI-45
g8
(g10
S'\xe6\x9d\xa2\xd2\x9bH\x12\xc0'
tRp2192
sI-20
g8
(g10
S'\xdcI-\xdf\xaay\x0b\xc0'
tRp2193
sI45
g8
(g10
S'\xdc\xd6\tE\x97\x7f\x12\xc0'
tRp2194
ss(g16
g3
g3
g102
tp2195
(dp2196
I0
I0
sI20
I0
sI-45
I0
sI-20
I0
sI45
g8
(g10
S'\xf7\xb9\xfal|0\xca?'
tRp2197
ss(g2
g2
g35
g38
tp2198
(dp2199
I0
g8
(g10
S'\xda/\x07\xd0}p\x12\xc0'
tRp2200
sI20
g8
(g10
S'\x98\xe2`\xf8r\xbf\x11\xc0'
tRp2201
sI-45
g8
(g10
S'\x13\x91L\n\xe0\xae\x11\xc0'
tRp2202
sI-20
g8
(g10
S'\xa9t\x9d4cJ\x12\xc0'
tRp2203
sI45
g8
(g10
S'\xf8\xbf>z\xc4\xb5\x11\xc0'
tRp2204
ss(g2
g2
g4
g71
tp2205
(dp2206
I0
g8
(g10
S'\xa5\x08G\x15=+\x11\xc0'
tRp2207
sI20
g8
(g10
S'XUn\xd4\x1c\t\x11\xc0'
tRp2208
sI-45
g8
(g10
S'\t\x9c\x10)\xa1P\x11\xc0'
tRp2209
sI-20
g8
(g10
S'\x13\xc3\xe6\x14\x88N\x11\xc0'
tRp2210
sI45
g8
(g10
S'[\xa2\xed9\x84\xa0\x10\xc0'
tRp2211
ss(g16
g4
g16
g71
tp2212
(dp2213
I0
g8
(g10
S'\xe2\xac\x8c\xa5\x87\x11\xc9\xbf'
tRp2214
sI20
g8
(g10
S'\xc7\xa8\x05j\xe9\x15\xee\xbf'
tRp2215
sI-45
g8
(g10
S'\x18\x1a\x1e\x9f\x8d\n\xe6\xbf'
tRp2216
sI-20
g8
(g10
S'\xbe[\xc2\xad\xbdY\xc9\xbf'
tRp2217
sI45
g8
(g10
S'\x1a:t\xcb\x9cI\xe3\xbf'
tRp2218
ss(g16
g3
g35
g24
tp2219
(dp2220
I0
g8
(g10
S'\x814{0\xe7E\xf7\xbf'
tRp2221
sI20
g8
(g10
S'P\x8f|\xc1I\xb3\xf4\xbf'
tRp2222
sI-45
g8
(g10
S'd\xeb\x9f\xa5\xce\x15\xf6\xbf'
tRp2223
sI-20
g8
(g10
S'A%\xa9:x\xf8\xf5\xbf'
tRp2224
sI45
g8
(g10
S'\x1b\xe6^\xd7\xff\xb7\xf8\xbf'
tRp2225
ss(g2
g4
g16
g24
tp2226
(dp2227
I0
I0
sI20
I0
sI-45
g8
(g10
S'\xcc:\x9b\x84*\xc7\xda\xbf'
tRp2228
sI-20
I0
sI45
I0
ss(g16
g16
g3
g24
tp2229
(dp2230
I0
g8
(g10
S'\x8f\x1e\xb9\xd8\xfa\x02\xee\xbf'
tRp2231
sI20
g8
(g10
S'\xb8\x01\xf62\x8c\xff\xe7\xbf'
tRp2232
sI-45
g8
(g10
S'\xc0*\xe6\x9c\x1b\xfd\xec\xbf'
tRp2233
sI-20
g8
(g10
S'\xd8\x98\x82\xcc\x87\xa9\xe2\xbf'
tRp2234
sI45
g8
(g10
S'L+C<,\xbf\xf0\xbf'
tRp2235
ss.